(dp0
Vmaetan-dong
p1
(lp2
I1
aL0L
asVep2007115024
p3
(lp4
I1
aL38L
asVall
p5
(lp6
I8
aL76L
asVcode
p7
(lp8
I8
aL359L
asVpartial
p9
(lp10
I1
aL642L
asVgr
p11
(lp12
I1
aL680L
asVguseong-eup
p13
(lp14
I1
aL718L
asVlack
p15
(lp16
I1
aL756L
asVminoru
p17
(lp18
I1
aL797L
asVby
p19
(lp20
I8
aL42019L
asVsubclass
p21
(lp22
I8
aL40349L
asVga
p23
(lp24
I1
aL914L
asV26377
p25
(lp26
I1
aL956L
asV2011-02-24
p27
(lp28
I1
aL39636L
asVresearch
p29
(lp30
I1
aL997L
asVsung
p31
(lp32
I1
aL1035L
asVkabushiki
p33
(lp34
I1
aL1073L
asVedg
p35
(lp36
I2
aL1114L
asVdepend
p37
(lp38
I1
aL1190L
asVmasan-si
p39
(lp40
I2
aL1228L
asVd06f39
p41
(lp42
I3
aL1301L
asVd06f35
p43
(lp44
I1
aL1411L
asVflow-in
p45
(lp46
I1
aL1449L
asVto
p47
(lp48
I7
aL1531L
asV22269
p49
(lp50
I1
aL1778L
asVep1870505a2
p51
(lp52
I1
aL1819L
asVstabli
p53
(lp54
I2
aL1857L
asV2010-02-25
p55
(lp56
I1
aL1930L
asVintroduc
p57
(lp58
I1
aL1971L
asV2011-08-31
p59
(lp60
I1
aL2013L
asV7
p61
(lp62
I1
aL2051L
asVdownstream
p63
(lp64
I1
aL2089L
asVes2209215t3
p65
(lp66
I1
aL2127L
asVdisclos
p67
(lp68
I2
aL2168L
asVapt.
p69
(lp70
I1
aL2244L
asVwave
p71
(lp72
I1
aL2282L
asVelectron
p73
(lp74
I3
aL2324L
asVmechan
p75
(lp76
I1
aL2431L
asVelectrod
p77
(lp78
I1
aL2473L
asVe03c1
p79
(lp80
I1
aL25556L
asVep1918441a1
p81
(lp82
I1
aL2556L
asVfukuoka
p83
(lp84
I1
aL2594L
asVjugong
p85
(lp86
I1
aL2632L
asVupc
p87
(lp88
I3
aL2670L
asVcn101173451a
p89
(lp90
I1
aL2782L
asVsang
p91
(lp92
I2
aL2820L
asVsmall
p93
(lp94
I2
aL2893L
asVenjoy
p95
(lp96
I1
aL2970L
asVupper
p97
(lp98
I1
aL3008L
asV2011-08
p99
(lp100
I1
aL3050L
asVsmaller
p101
(lp102
I1
aL3088L
asV26472
p103
(lp104
I1
aL3129L
asVwo2011104633a3
p105
(lp106
I1
aL19926L
asV2011-02
p107
(lp108
I2
aL3212L
asV196
p109
(lp110
I1
aL3284L
asV2011-06
p111
(lp112
I1
aL3322L
asVpressur
p113
(lp114
I2
aL3363L
asVpass
p115
(lp116
I2
aL3439L
asVthrottl
p117
(lp118
I2
aL41626L
asVair
p119
(lp120
I3
aL32911L
asVport
p121
(lp122
I1
aL3660L
asVus20080099052a1
p123
(lp124
I1
aL3702L
asV2007-08
p125
(lp126
I1
aL3740L
asVschwanh
p127
(lp128
I1
aL3778L
asV2009-12-03
p129
(lp130
I1
aL3816L
asVneg
p131
(lp132
I1
aL3857L
asVsection
p133
(lp134
I8
aL3898L
asV26093
p135
(lp136
I1
aL4181L
asVuniform
p137
(lp138
I1
aL4222L
asVagent/attorney
p139
(lp140
I2
aL4260L
asV239/1
p141
(lp142
I1
aL4329L
asVintersect
p143
(lp144
I1
aL4371L
asVukigai
p145
(lp146
I1
aL33097L
asV;
p147
(lp148
I4
aL4490L
asVmethod
p149
(lp150
I3
aL4632L
asVfujiwara
p151
(lp152
I1
aL4739L
asV2011-09-01
p153
(lp154
I1
aL28015L
asVfull
p155
(lp156
I1
aL4822L
asVlee
p157
(lp158
I2
aL4863L
asV23665
p159
(lp160
I1
aL4977L
asVgener
p161
(lp162
I7
aL5018L
asVmicrobubbl
p163
(lp164
I2
aL5269L
asVwater
p165
(lp166
I5
aL5345L
asVaddress
p167
(lp168
I8
aL5519L
asVi.e
p169
(lp170
I1
aL5802L
asValong
p171
(lp172
I2
aL5843L
asVbecom
p173
(lp174
I1
aL5919L
asVsinc
p175
(lp176
I1
aL5960L
asVvolumin
p177
(lp178
I1
aL6002L
asVlarger
p179
(lp180
I1
aL6040L
asVkr1020080092196a
p181
(lp182
I1
aL6081L
asVb60s3/00
p183
(lp184
I1
aL6123L
asVamount
p185
(lp186
I2
aL6164L
asV31179
p187
(lp188
I1
aL6237L
asVep2011250197
p189
(lp190
I1
aL6278L
asVchang
p191
(lp192
I1
aL6316L
asVnarrow
p193
(lp194
I1
aL6354L
asVde69818716d1
p195
(lp196
I1
aL6395L
asVipc
p197
(lp198
I8
aL6436L
asVdiamet
p199
(lp200
I1
aL6719L
asVconfigur
p201
(lp202
I2
aL26395L
asVblockag
p203
(lp204
I1
aL6801L
asVus20080250823a1
p205
(lp206
I1
aL6843L
asVfamili
p207
(lp208
I8
aL6885L
asV1st
p209
(lp210
I8
aL7168L
asVinstal
p211
(lp212
I1
aL7451L
asVunit
p213
(lp214
I2
aL7489L
asVuse
p215
(lp216
I5
aL7707L
asVfrom
p217
(lp218
I4
aL7961L
asVstream
p219
(lp220
I2
aL8102L
asVusa
p221
(lp222
I3
aL8178L
asV&
p223
(lp224
I2
aL8290L
asV2008-02
p225
(lp226
I1
aL8363L
asVd06f39/02
p227
(lp228
I1
aL8405L
asV2008-05
p229
(lp230
I1
aL8446L
asVd06f39/00
p231
(lp232
I1
aL8484L
asVokano
p233
(lp234
I1
aL32538L
asV6
p235
(lp236
I4
aL8567L
asVtype
p237
(lp238
I8
aL8705L
asVmore
p239
(lp240
I1
aL8988L
asVb05c3/00
p241
(lp242
I1
aL9030L
asVon
p243
(lp244
I2
aL42416L
asVline
p245
(lp246
I2
aL44980L
asVanwaltssoziet
p247
(lp248
I1
aL9154L
asVhwanggolmaeul
p249
(lp250
I1
aL9192L
asVparticular
p251
(lp252
I1
aL9230L
asVhole
p253
(lp254
I2
aL9272L
asVname=
p255
(lp256
I8
aL9345L
asVrhian
p257
(lp258
I1
aL9636L
asV68/5c
p259
(lp260
I1
aL9674L
asV1998
p261
(lp262
I1
aL9716L
asV26446
p263
(lp264
I1
aL4781L
asVkatsuya
p265
(lp266
I1
aL38128L
asVcan
p267
(lp268
I3
aL9799L
asVcn1167843c
p269
(lp270
I1
aL9906L
asV21319
p271
(lp272
I1
aL33894L
asVcontrol
p273
(lp274
I2
aL9988L
asVf1
p275
(lp276
I1
aL10060L
asV2008-10
p277
(lp278
I1
aL42818L
asV20060107215
p279
(lp280
I1
aL10139L
asVru2007132752a
p281
(lp282
I1
aL10177L
asVagent
p283
(lp284
I2
aL10256L
asV239
p285
(lp286
I2
aL10332L
asVyutaka
p287
(lp288
I1
aL10409L
asVmade
p289
(lp290
I1
aL45743L
asVcontraction/enlarg
p291
(lp292
I1
aL10447L
asVsurfac
p293
(lp294
I2
aL10488L
asVcours
p295
(lp296
I1
aL10564L
asVohashi
p297
(lp298
I1
aL10605L
asVdivid
p299
(lp300
I1
aL10643L
asVcylind
p301
(lp302
I1
aL10681L
asV20255
p303
(lp304
I1
aL10723L
asV1
p305
(lp306
I8
aL10764L
asVhot
p307
(lp308
I1
aL11047L
asVcomb-lik
p309
(lp310
I1
aL11089L
asVnara
p311
(lp312
I1
aL15672L
asVsato
p313
(lp314
I1
aL11173L
asVproduct
p315
(lp316
I1
aL11211L
asVmay
p317
(lp318
I1
aL11252L
asVep2361689a1
p319
(lp320
I1
aL11294L
asVb05b1/00
p321
(lp322
I1
aL11332L
asVlaundri
p323
(lp324
I2
aL11374L
asVe03c1/04
p325
(lp326
I1
aL11447L
asVdate
p327
(lp328
I8
aL11485L
asVsuch
p329
(lp330
I1
aL11768L
asVsuck
p331
(lp332
I1
aL11809L
asVwo2011066805a1
p333
(lp334
I1
aL19843L
asVshigeki
p335
(lp336
I1
aL11892L
asVa
p337
(lp338
I8
aL11934L
asV2008-10-16
p339
(lp340
I1
aL12221L
asV2009-06-22
p341
(lp342
I1
aL12263L
asVliquid
p343
(lp344
I1
aL12305L
asVdocdb
p345
(lp346
I3
aL12347L
asVminim
p347
(lp348
I1
aL34635L
asVcorrespond
p349
(lp350
I1
aL12492L
asVproduc
p351
(lp352
I1
aL12534L
asVcaus
p353
(lp354
I1
aL12572L
asV)
p355
(lp356
I8
aL34677L
asVyangdeok-2-dong
p357
(lp358
I1
aL12893L
asVso
p359
(lp360
I4
aL12931L
asVallow
p361
(lp362
I2
aL13072L
asVorder
p363
(lp364
I1
aL13145L
asVno.
p365
(lp366
I1
aL13186L
asVsook
p367
(lp368
I2
aL13224L
asVhiroshi
p369
(lp370
I1
aL13297L
asVouter
p371
(lp372
I2
aL29773L
asV2010-06-25
p373
(lp374
I1
aL13338L
asVcircumfer
p375
(lp376
I1
aL13380L
asVthrough
p377
(lp378
I2
aL13422L
asV2010-06
p379
(lp380
I2
aL13536L
asVequip
p381
(lp382
I2
aL13613L
asVvari
p383
(lp384
I1
aL13689L
asV24
p385
(lp386
I1
aL13727L
asVmember
p387
(lp388
I8
aL35354L
asVgroup
p389
(lp390
I8
aL13803L
asV21
p391
(lp392
I1
aL14086L
asV22
p393
(lp394
I1
aL14124L
asV23
p395
(lp396
I1
aL14162L
asVpassag
p397
(lp398
I1
aL14200L
asVd06f35/00
p399
(lp400
I1
aL14242L
asV,
p401
(lp402
I8
aL14280L
asVkitakyusyu-shi
p403
(lp404
I1
aL14569L
asVfujikawa
p405
(lp406
I1
aL14648L
asV659-7
p407
(lp408
I1
aL14690L
asVmain
p409
(lp410
I2
aL14728L
asV2011
p411
(lp412
I4
aL14804L
asV<
p413
(lp414
I8
aL14945L
asV2012
p415
(lp416
I1
aL15236L
asVthen
p417
(lp418
I1
aL15278L
asV2011-06-09
p419
(lp420
I1
aL15319L
asVthereof
p421
(lp422
I2
aL15360L
asVone
p423
(lp424
I2
aL15436L
asVpaldal-gu
p425
(lp426
I1
aL15513L
asVintroduct
p427
(lp428
I1
aL15551L
asVimura
p429
(lp430
I1
aL15593L
asV2008-05-07
p431
(lp432
I1
aL27424L
asVfine-bubbl
p433
(lp434
I1
aL11131L
asVdrop
p435
(lp436
I1
aL15714L
asVsepar
p437
(lp438
I1
aL15752L
asVaerat
p439
(lp440
I1
aL15793L
asV2010-02-18
p441
(lp442
I1
aL15831L
asVcompris
p443
(lp444
I1
aL15869L
asVeach
p445
(lp446
I1
aL15910L
asV|
p447
(lp448
I8
aL15951L
asVmean
p449
(lp450
I2
aL16239L
asVweight
p451
(lp452
I1
aL16311L
asVhyun
p453
(lp454
I2
aL16349L
asVreplac
p455
(lp456
I1
aL16422L
asV10-2007-0035779
p457
(lp458
I1
aL16463L
asVcontinu
p459
(lp460
I1
aL16505L
asVb08b3
p461
(lp462
I1
aL16543L
asVyear
p463
(lp464
I8
aL16584L
asVep
p465
(lp466
I2
aL16867L
asVcn101285254a
p467
(lp468
I1
aL16936L
asVru2360052c2
p469
(lp470
I1
aL16978L
asVhyundai-hometown
p471
(lp472
I1
aL17016L
asVinfluenc
p473
(lp474
I1
aL17054L
asVe03c
p475
(lp476
I1
aL835L
asVdischarg
p477
(lp478
I1
aL17203L
asVbubbl
p479
(lp480
I5
aL17241L
asVmaetan-3-dong
p481
(lp482
I1
aL17414L
asVadapt
p483
(lp484
I1
aL17452L
asVrel
p485
(lp486
I2
aL17490L
asVbubl
p487
(lp488
I1
aL17562L
asVplural
p489
(lp490
I1
aL17603L
asVinou
p491
(lp492
I1
aL17641L
asVrisen
p493
(lp494
I1
aL17682L
asVbase
p495
(lp496
I1
aL17764L
asV243
p497
(lp498
I1
aL17806L
asVput
p499
(lp500
I2
aL17844L
asV2010033979
p501
(lp502
I1
aL17920L
asV239/102.2
p503
(lp504
I1
aL17958L
asVnemoto
p505
(lp506
I1
aL18000L
asVmasanori
p507
(lp508
I1
aL18041L
asVveloc
p509
(lp510
I1
aL18083L
asVturn
p511
(lp512
I1
aL18124L
asVoutsid
p513
(lp514
I1
aL18166L
asVversion=
p515
(lp516
I8
aL44085L
asVep0870505a1
p517
(lp518
I1
aL18249L
asVoper
p519
(lp520
I1
aL18287L
asVnagata
p521
(lp522
I1
aL18329L
asVrang
p523
(lp524
I1
aL18367L
asVvehicl
p525
(lp526
I1
aL18409L
asVfeel
p527
(lp528
I1
aL18450L
asV38480
p529
(lp530
I1
aL4936L
asVep1302585a1
p531
(lp532
I1
aL18812L
asV2006-11-01
p533
(lp534
I1
aL18850L
asVwash
p535
(lp536
I4
aL18888L
asV2011-09
p537
(lp538
I1
aL19030L
asVhoon
p539
(lp540
I1
aL19071L
asVdong
p541
(lp542
I1
aL19109L
asVmist
p543
(lp544
I1
aL19151L
asVopen
p545
(lp546
I1
aL19193L
asVprimari
p547
(lp548
I8
aL19235L
asVsize
p549
(lp550
I1
aL19518L
asVprioriti
p551
(lp552
I7
aL19556L
asVdiffer
p553
(lp554
I1
aL19802L
asVb05b1/08
p555
(lp556
I1
aL11850L
asVconvent
p557
(lp558
I1
aL19884L
asVsystem
p559
(lp560
I1
aL19967L
asVleast
p561
(lp562
I1
aL20008L
asVwo0006821a1
p563
(lp564
I1
aL39012L
asV2
p565
(lp566
I2
aL20046L
asVcite
p567
(lp568
I8
aL20162L
asVstore
p569
(lp570
I1
aL20445L
asVinclud
p571
(lp572
I4
aL44493L
asVthat
p573
(lp574
I5
aL20562L
asVpark
p575
(lp576
I1
aL20738L
asVpart
p577
(lp578
I2
aL20780L
asV21306
p579
(lp580
I1
aL20857L
asVnumber
p581
(lp582
I8
aL18529L
asVbubble-gener
p583
(lp584
I1
aL20898L
asVthan
p585
(lp586
I1
aL20939L
asVinventor
p587
(lp588
I6
aL20980L
asVd06
p589
(lp590
I4
aL21191L
asVkind
p591
(lp592
I8
aL21332L
asVb
p593
(lp594
I3
aL21615L
asVprovid
p595
(lp596
I4
aL21726L
asVgotten
p597
(lp598
I1
aL21868L
asVremov
p599
(lp600
I2
aL21910L
asVshower
p601
(lp602
I1
aL21986L
asVstr
p603
(lp604
I8
aL22024L
asVwere
p605
(lp606
I1
aL22315L
asVarrang
p607
(lp608
I1
aL22353L
asVventuri
p609
(lp610
I1
aL22395L
asVpct/kr1998/000359
p611
(lp612
I1
aL22436L
asVresult
p613
(lp614
I2
aL22477L
asVand
p615
(lp616
I8
aL22553L
asV1.0
p617
(lp618
I8
aL22838L
asVsaitama
p619
(lp620
I1
aL23121L
asVb05c3/10
p621
(lp622
I1
aL23163L
asVram
p623
(lp624
I2
aL23204L
asV38738
p625
(lp626
I1
aL23277L
asVseo
p627
(lp628
I1
aL28218L
asV20013
p629
(lp630
I1
aL23356L
asVhave
p631
(lp632
I3
aL23397L
asV1998-11
p633
(lp634
I1
aL23507L
asVkinkeldey
p635
(lp636
I1
aL28098L
asVmin
p637
(lp638
I2
aL23548L
asV24066
p639
(lp640
I1
aL23621L
asVmix
p641
(lp642
I1
aL23662L
asVwhich
p643
(lp644
I6
aL23704L
asVchannel
p645
(lp646
I1
aL23917L
asVaichi-ken
p647
(lp648
I1
aL23955L
asVexcit
p649
(lp650
I1
aL23996L
asVdetect
p651
(lp652
I1
aL28700L
asVpyo
p653
(lp654
I2
aL24121L
asVclass
p655
(lp656
I8
aL24194L
asV802-8601
p657
(lp658
I1
aL24477L
asVeject
p659
(lp660
I2
aL24515L
asVejector
p661
(lp662
I1
aL24588L
asVdoc
p663
(lp664
I8
aL24630L
asVgyeonggi-do
p665
(lp666
I1
aL24913L
asVflow
p667
(lp668
I2
aL24951L
asVface
p669
(lp670
I1
aL25027L
asVkr
p671
(lp672
I3
aL25069L
asVmabuk-ri
p673
(lp674
I1
aL25177L
asVflow-out
p675
(lp676
I1
aL25215L
asVclean
p677
(lp678
I2
aL25256L
asVapparatu
p679
(lp680
I2
aL25332L
asV2010
p681
(lp682
I3
aL25404L
asV20844
p683
(lp684
I1
aL2515L
asVtoyota-cho
p685
(lp686
I1
aL25594L
asVfine
p687
(lp688
I2
aL25635L
asVb08b3/08
p689
(lp690
I1
aL1490L
asVxml
p691
(lp692
I8
aL25748L
asV2011-02-18
p693
(lp694
I1
aL26031L
asVonli
p695
(lp696
I1
aL26069L
asV(
p697
(lp698
I8
aL26111L
asV2009-12-29
p699
(lp700
I1
aL6760L
asVsolut
p701
(lp702
I1
aL26471L
asV3
p703
(lp704
I8
aL28738L
asV2009-148112
p705
(lp706
I1
aL26555L
asVkitakyushu-shi
p707
(lp708
I1
aL26597L
asV2-chome
p709
(lp710
I1
aL26635L
asV8
p711
(lp712
I2
aL26673L
asVjae
p713
(lp714
I1
aL26748L
asVe03c1/84
p715
(lp716
I1
aL26790L
asVplate
p717
(lp718
I1
aL26828L
asVb05b
p719
(lp720
I2
aL26869L
asV27927
p721
(lp722
I1
aL26946L
asVwide
p723
(lp724
I1
aL26987L
asV152-1303
p725
(lp726
I1
aL33059L
asVda
p727
(lp728
I1
aL27029L
asV25216
p729
(lp730
I1
aL27067L
asVoutlet
p731
(lp732
I2
aL27108L
asVincreas
p733
(lp734
I1
aL27184L
asVsuwon-si
p735
(lp736
I2
aL27226L
asV2010-12
p737
(lp738
I1
aL27299L
asV2012-04
p739
(lp740
I1
aL27340L
asVenabl
p741
(lp742
I1
aL27382L
asVnecker
p743
(lp744
I1
aL15634L
asVbe
p745
(lp746
I4
aL41488L
asV200910250314.6
p747
(lp748
I1
aL27462L
asVpublic
p749
(lp750
I8
aL27503L
asV416
p751
(lp752
I1
aL27786L
asVwo2008155272a1
p753
(lp754
I1
aL27824L
asVintegr
p755
(lp756
I1
aL27862L
asVcontain
p757
(lp758
I3
aL27904L
asVresist
p759
(lp760
I1
aL28056L
asVare
p761
(lp762
I4
aL7562L
asVmasahiro
p763
(lp764
I1
aL28136L
asV31185
p765
(lp766
I1
aL28177L
asVkr1020080039647a
p767
(lp768
I1
aL23318L
asV/doc
p769
(lp770
I8
aL28260L
asVimprov
p771
(lp772
I1
aL36662L
asVparticl
p773
(lp774
I1
aL28543L
asVb05b1
p775
(lp776
I1
aL28585L
asV#
p777
(lp778
I2
aL28627L
asV2007-04-11
p779
(lp780
I1
aL24079L
asVpump
p781
(lp782
I1
aL26513L
asVbetween
p783
(lp784
I2
aL29021L
asV22242
p785
(lp786
I1
aL29097L
asVco.
p787
(lp788
I4
aL29138L
asVaccord
p789
(lp790
I1
aL29280L
asVwo
p791
(lp792
I3
aL29318L
asVjp
p793
(lp794
I4
aL29506L
asVkitayusyu-shi
p795
(lp796
I1
aL29427L
asVde69818716t2
p797
(lp798
I1
aL29649L
asVorific
p799
(lp800
I1
aL29690L
asV34915
p801
(lp802
I1
aL29732L
asV20
p803
(lp804
I1
aL17723L
asVtub
p805
(lp806
I2
aL29849L
asV2000-05
p807
(lp808
I1
aL29925L
asVkokurakita-ku
p809
(lp810
I1
aL29966L
asV24037
p811
(lp812
I1
aL24038L
asVacoust
p813
(lp814
I1
aL30046L
asVdrum
p815
(lp816
I1
aL30088L
asVimmers
p817
(lp818
I1
aL30130L
asVcontract
p819
(lp820
I1
aL30171L
asVforeign
p821
(lp822
I1
aL30212L
asVs
p823
(lp824
I8
aL30254L
asV1998-11-10
p825
(lp826
I1
aL30537L
asVus13/379358
p827
(lp828
I1
aL30578L
asVcountri
p829
(lp830
I7
aL30661L
asVus12/071914
p831
(lp832
I1
aL30907L
asVload
p833
(lp834
I1
aL30949L
asVtoyota-shi
p835
(lp836
I1
aL30987L
asVacceler
p837
(lp838
I1
aL31028L
asVcn
p839
(lp840
I1
aL31069L
asVexcess
p841
(lp842
I1
aL31151L
asV2nd
p843
(lp844
I1
aL31192L
asVyuji
p845
(lp846
I1
aL31230L
asVus5295373
p847
(lp848
I1
aL49289L
asVsuppli
p849
(lp850
I4
aL31271L
asV68
p851
(lp852
I1
aL31412L
asVrespect
p853
(lp854
I1
aL31454L
asV100
p855
(lp856
I1
aL31492L
asV2000
p857
(lp858
I1
aL49409L
asVus12/823814
p859
(lp860
I1
aL31533L
asVyeon
p861
(lp862
I2
aL31575L
asV200910265894.6
p863
(lp864
I1
aL31648L
asVdue
p865
(lp866
I2
aL31689L
asV.
p867
(lp868
I8
aL31765L
asVelectr
p869
(lp870
I1
aL32048L
asV>
p871
(lp872
I8
aL32090L
asVboth
p873
(lp874
I1
aL32381L
asVwith
p875
(lp876
I7
aL45096L
asVyongin-si
p877
(lp878
I2
aL32423L
asVpiezoelectr
p879
(lp880
I1
aL32496L
asVthose
p881
(lp882
I1
aL32580L
asVus20120097752a1
p883
(lp884
I1
aL32621L
asVtank
p885
(lp886
I1
aL32663L
asV2010040275
p887
(lp888
I1
aL32704L
asVus20110315796a1
p889
(lp890
I1
aL32745L
asVmight
p891
(lp892
I1
aL32787L
asValign
p893
(lp894
I1
aL32829L
asVintak
p895
(lp896
I1
aL32870L
asV25991
p897
(lp898
I1
aL3619L
asVminami
p899
(lp900
I1
aL33021L
asVnear
p901
(lp902
I1
aL10215L
asVb05
p903
(lp904
I2
aL4413L
asVabov
p905
(lp906
I1
aL33135L
asVusser
p907
(lp908
I1
aL33177L
asVb08
p909
(lp910
I1
aL46183L
asVryong
p911
(lp912
I1
aL33257L
asV20809
p913
(lp914
I1
aL33299L
asVpropag
p915
(lp916
I1
aL33340L
asV36335
p917
(lp918
I1
aL33382L
asVis
p919
(lp920
I8
aL33423L
asVdae-yeong
p921
(lp922
I1
aL9113L
asVit
p923
(lp924
I2
aL33818L
asVb08b3/10
p925
(lp926
I1
aL9947L
asV26519
p927
(lp928
I1
aL33935L
asVin
p929
(lp930
I6
aL33976L
asVcarbon
p931
(lp932
I1
aL34189L
asV/str
p933
(lp934
I8
aL34230L
asVif
p935
(lp936
I2
aL34521L
asVhong
p937
(lp938
I1
aL34594L
asV232-1802
p939
(lp940
I1
aL12454L
asVpatent
p941
(lp942
I8
aL12610L
asV0
p943
(lp944
I8
aL34961L
asVsame
p945
(lp946
I2
aL35244L
asVwherein
p947
(lp948
I1
aL35316L
asV2007-08-27
p949
(lp950
I1
aL13765L
asVgranlees
p951
(lp952
I1
aL35637L
asVdocument
p953
(lp954
I8
aL35675L
asVexhaust
p955
(lp956
I1
aL35958L
asVoil
p957
(lp958
I1
aL35999L
asV1-1
p959
(lp960
I1
aL36040L
asVupon
p961
(lp962
I1
aL36078L
asVeffect
p963
(lp964
I2
aL36116L
asVrain
p965
(lp966
I1
aL36188L
asVus5590551
p967
(lp968
I1
aL38567L
asVcapabl
p969
(lp970
I1
aL36267L
asVassigne
p971
(lp972
I7
aL36305L
asVuser
p973
(lp974
I1
aL36551L
asVkim
p975
(lp976
I2
aL36589L
asV39640
p977
(lp978
I1
aL18488L
asVlower
p979
(lp980
I1
aL36703L
asVtakahiro
p981
(lp982
I1
aL36745L
asVb05b17/00
p983
(lp984
I1
aL36783L
asV24072
p985
(lp986
I1
aL36825L
asVthu
p987
(lp988
I1
aL36866L
asVwell
p989
(lp990
I1
aL36908L
asVhwaseong-si
p991
(lp992
I1
aL36949L
asVwithout
p993
(lp994
I1
aL36991L
asVltd.
p995
(lp996
I5
aL37033L
asVtitl
p997
(lp998
I8
aL47446L
asVthe
p999
(lp1000
I8
aL37207L
asVepa
p1001
(lp1002
I2
aL37497L
asVclog
p1003
(lp1004
I1
aL37566L
asVcoaxial
p1005
(lp1006
I1
aL38688L
asVdioxid
p1007
(lp1008
I1
aL37649L
asVoak
p1009
(lp1010
I2
aL47729L
asV33521
p1011
(lp1012
I1
aL37732L
asVdose
p1013
(lp1014
I1
aL37773L
asVshape
p1015
(lp1016
I1
aL37814L
asVaihara
p1017
(lp1018
I1
aL37855L
asV2008-02-27
p1019
(lp1020
I1
aL37893L
asVgyeongsangnam-do
p1021
(lp1022
I1
aL37935L
asVspeed
p1023
(lp1024
I2
aL37973L
asVautom
p1025
(lp1026
I1
aL38046L
asVep1129250b1
p1027
(lp1028
I1
aL38087L
asV4
p1029
(lp1030
I1
aL13495L
asVwet
p1031
(lp1032
I1
aL38166L
asV5
p1033
(lp1034
I8
aL48203L
asVapplic
p1035
(lp1036
I8
aL38246L
asVstockmair
p1037
(lp1038
I1
aL38529L
asVpct/ib2011/000563
p1039
(lp1040
I1
aL36226L
asV2011-12
p1041
(lp1042
I1
aL38605L
asVrealiz
p1043
(lp1044
I1
aL38647L
asVburden
p1045
(lp1046
I1
aL37608L
asVvacuum
p1047
(lp1048
I1
aL38729L
asVamp
p1049
(lp1050
I1
aL38770L
asVcircul
p1051
(lp1052
I1
aL47172L
asVcircumferenti
p1053
(lp1054
I1
aL38808L
asVdaewoo
p1055
(lp1056
I1
aL38850L
asVrear
p1057
(lp1058
I1
aL38891L
asVyeongtong-dong
p1059
(lp1060
I1
aL38932L
asVinsert
p1061
(lp1062
I1
aL38970L
asV28023
p1063
(lp1064
I1
aL14607L
asVd
p1065
(lp1066
I4
aL39050L
asVnozzl
p1067
(lp1068
I3
aL17096L
asVwo2000028129a1
p1069
(lp1070
I1
aL39474L
asVyouhei
p1071
(lp1072
I1
aL39515L
asVmanual
p1073
(lp1074
I1
aL39557L
asVe03
p1075
(lp1076
I1
aL39598L
asVcollect
p1077
(lp1078
I1
aL30620L
asVt
p1079
(lp1080
I1
aL39677L
asV200
p1081
(lp1082
I1
aL39715L
asVtoyota
p1083
(lp1084
I1
aL39756L
asVkaisha
p1085
(lp1086
I1
aL39797L
asVsimpl
p1087
(lp1088
I1
aL39838L
asV2010-06-02
p1089
(lp1090
I1
aL39880L
asVokamoto
p1091
(lp1092
I1
aL39922L
asVrins
p1093
(lp1094
I1
aL39960L
asV9800359
p1095
(lp1096
I1
aL40001L
asV23572
p1097
(lp1098
I1
aL25515L
asVfor
p1099
(lp1100
I4
aL40083L
asVbottom
p1101
(lp1102
I1
aL40228L
asVtube
p1103
(lp1104
I1
aL40270L
asVtoto
p1105
(lp1106
I1
aL40311L
asV/
p1107
(lp1108
I1
aL873L
asVlarg
p1109
(lp1110
I3
aL40632L
asVcondit
p1111
(lp1112
I1
aL40739L
asV?
p1113
(lp1114
I8
aL40781L
asVrefer
p1115
(lp1116
I8
aL41064L
asVmachin
p1117
(lp1118
I4
aL41347L
asVcore
p1119
(lp1120
I1
aL3170L
asVd06f
p1121
(lp1122
I3
aL3512L
asVishigami
p1123
(lp1124
I1
aL41699L
asV300
p1125
(lp1126
I1
aL41741L
asVbo
p1127
(lp1128
I2
aL41782L
asV266101
p1129
(lp1130
I1
aL41855L
asVcn1327494a
p1131
(lp1132
I1
aL41896L
asV26426
p1133
(lp1134
I1
aL41937L
asV23707
p1135
(lp1136
I1
aL41978L
asVpanason
p1137
(lp1138
I1
aL8525L
asVauto-ad
p1139
(lp1140
I1
aL42302L
asVseong
p1141
(lp1142
I2
aL42343L
asV68/5.c
p1143
(lp1144
I1
aL9071L
asVd06f39/08
p1145
(lp1146
I1
aL42489L
asVof
p1147
(lp1148
I8
aL42531L
asVkozuka
p1149
(lp1150
I1
aL10098L
asVside
p1151
(lp1152
I3
aL33707L
asV19994
p1153
(lp1154
I1
aL46060L
asV22253
p1155
(lp1156
I1
aL42898L
asVor
p1157
(lp1158
I2
aL7885L
asVblock
p1159
(lp1160
I1
aL42981L
asVheight
p1161
(lp1162
I1
aL43023L
asV2000-05-18
p1163
(lp1164
I1
aL43064L
asVeffici
p1165
(lp1166
I1
aL43105L
asVyeongtong-gu
p1167
(lp1168
I1
aL43146L
asVinto
p1169
(lp1170
I4
aL43184L
asVwithin
p1171
(lp1172
I8
aL43329L
asVtwo
p1173
(lp1174
I3
aL43612L
asVdaeleon
p1175
(lp1176
I1
aL43723L
asVep0495168a1
p1177
(lp1178
I1
aL43765L
asVus2003230122a1
p1179
(lp1180
I1
aL43806L
asVinsuffici
p1181
(lp1182
I1
aL43844L
asV30465
p1183
(lp1184
I1
aL43886L
asV103-1201
p1185
(lp1186
I1
aL43927L
asVinstitut
p1187
(lp1188
I1
aL43965L
asV21525
p1189
(lp1190
I1
aL44003L
asVarea
p1191
(lp1192
I1
aL44044L
asV23810
p1193
(lp1194
I1
aL18208L
asV2012-04-26
p1195
(lp1196
I1
aL44368L
asVbodi
p1197
(lp1198
I1
aL30004L
asVb08b
p1199
(lp1200
I1
aL44410L
asVinterfac
p1201
(lp1202
I1
aL44451L
asVinner
p1203
(lp1204
I2
aL20486L
asVjane
p1205
(lp1206
I1
aL44631L
asVosaka
p1207
(lp1208
I1
aL44669L
asVform
p1209
(lp1210
I4
aL44711L
asVdroplet
p1211
(lp1212
I1
aL49022L
asVbut
p1213
(lp1214
I1
aL44897L
asVsubstrat
p1215
(lp1216
I1
aL44938L
asVeas
p1217
(lp1218
I1
aL25707L
asVha
p1219
(lp1220
I1
aL45055L
asVpct/cn2010/079417
p1221
(lp1222
I1
aL31110L
asV221
p1223
(lp1224
I1
aL45343L
asV220
p1225
(lp1226
I1
aL45381L
asVcount
p1227
(lp1228
I8
aL45419L
asVcommun
p1229
(lp1230
I1
aL45702L
asVtherethrough
p1231
(lp1232
I1
aL42939L
asVhoewon-gu
p1233
(lp1234
I1
aL45785L
asVup
p1235
(lp1236
I1
aL45823L
asVus
p1237
(lp1238
I3
aL45865L
asV20329
p1239
(lp1240
I1
aL45977L
asVbelow
p1241
(lp1242
I1
aL46018L
asV2010-12-03
p1243
(lp1244
I1
aL20121L
asVep1129250a1
p1245
(lp1246
I1
aL46101L
asV19996
p1247
(lp1248
I1
aL29465L
asVb05b7/04
p1249
(lp1250
I1
aL42860L
asVshandong
p1251
(lp1252
I1
aL46224L
asVpil
p1253
(lp1254
I1
aL46265L
asVad
p1255
(lp1256
I1
aL46307L
asVabstract
p1257
(lp1258
I8
aL46348L
asVan
p1259
(lp1260
I5
aL46631L
asV''
p1261
(lp1262
I8
aL46809L
asVas
p1263
(lp1264
I2
aL47100L
asVexist
p1265
(lp1266
I1
aL33215L
asVat
p1267
(lp1268
I2
aL47214L
asVb05b1/18
p1269
(lp1270
I1
aL47286L
asVwork
p1271
(lp1272
I1
aL9757L
asVmutual
p1273
(lp1274
I1
aL47324L
asVsusumu
p1275
(lp1276
I1
aL47366L
asVno
p1277
(lp1278
I1
aL47408L
asVconstitut
p1279
(lp1280
I1
aL40042L
asVwhen
p1281
(lp1282
I1
aL37690L
asVyear/month
p1283
(lp1284
I8
aL39191L
asVreduct
p1285
(lp1286
I1
aL47878L
asVother
p1287
(lp1288
I8
aL47920L
asV239/589
p1289
(lp1290
I1
aL38204L
asVd06f29/00
p1291
(lp1292
I1
aL48486L
asV471-8571
p1293
(lp1294
I1
aL48528L
asV38598
p1295
(lp1296
I1
aL48569L
asVcenter
p1297
(lp1298
I1
aL48610L
asVa1
p1299
(lp1300
I7
aL48652L
asVa3
p1301
(lp1302
I1
aL48899L
asV21496
p1303
(lp1304
I1
aL48940L
asV21495
p1305
(lp1306
I1
aL48981L
asVjidosha
p1307
(lp1308
I1
aL44856L
asVb05b17
p1309
(lp1310
I1
aL49060L
asVland
p1311
(lp1312
I1
aL49102L
asVe
p1313
(lp1314
I1
aL49140L
asVsamsung
p1315
(lp1316
I2
aL49178L
asVnakashima
p1317
(lp1318
I1
aL49251L
asVep0735178a1
p1319
(lp1320
I1
aL46142L
asVkanji
p1321
(lp1322
I1
aL49327L
asV35768
p1323
(lp1324
I1
aL49368L
asVportion
p1325
(lp1326
I2
aL47802L
asV2011-12-29
p1327
(lp1328
I1
aL49450L
asV2007
p1329
(lp1330
I1
aL49492L
asVtime
p1331
(lp1332
I1
aL49530L
asV2008
p1333
(lp1334
I2
aL49571L
asVavoid
p1335
(lp1336
I1
aL49644L
asVkiyotak
p1337
(lp1338
I1
aL49685L
as.(lp0
S'EP1918441A1.xml'
p1
aS'EP2361689A1.xml'
p2
aS'US20080250823A1.xml'
p3
aS'US20110315796A1.xml'
p4
aS'US20120097752A1.xml'
p5
aS'WO2000028129A1.xml'
p6
aS'WO2011066805A1.xml'
p7
aS'WO2011104633A3.xml'
p8
a.(dp0
S'US20120097752A1'
p1
F17.63688067151096
sS'US20080250823A1'
p2
F16.790674642227632
sS'US20110315796A1'
p3
F16.870979880429037
sS'EP2361689A1'
p4
F18.327961805068078
sS'WO2011104633A3'
p5
F17.19995191327925
sS'WO2000028129A1'
p6
F17.29691330503938
sS'WO2011066805A1'
p7
F19.729957759609334
sS'EP1918441A1'
p8
F18.13884315690391
s.