(dp0
Vmaetan-dong
p1
(lp2
I1
aL0L
asVep2007115024
p3
(lp4
I1
aL38L
asVall
p5
(lp6
I8
aL76L
asVcode
p7
(lp8
I8
aL359L
asVpartial
p9
(lp10
I1
aL642L
asVgr
p11
(lp12
I1
aL680L
asVguseong-eup
p13
(lp14
I1
aL718L
asVlack
p15
(lp16
I1
aL756L
asVminoru
p17
(lp18
I1
aL797L
asVby
p19
(lp20
I8
aL42053L
asVsubclass
p21
(lp22
I8
aL40383L
asVga
p23
(lp24
I1
aL914L
asV26377
p25
(lp26
I1
aL956L
asV2011-02-24
p27
(lp28
I1
aL39670L
asVresearch
p29
(lp30
I1
aL997L
asVsung
p31
(lp32
I1
aL1035L
asVkabushiki
p33
(lp34
I1
aL1073L
asVedg
p35
(lp36
I2
aL1114L
asVdepend
p37
(lp38
I1
aL1190L
asVmasan-si
p39
(lp40
I2
aL1228L
asVd06f39
p41
(lp42
I3
aL1301L
asVd06f35
p43
(lp44
I1
aL1411L
asVflow-in
p45
(lp46
I1
aL1449L
asVto
p47
(lp48
I7
aL1531L
asV22269
p49
(lp50
I1
aL1778L
asVep1870505a2
p51
(lp52
I1
aL1819L
asVstabli
p53
(lp54
I2
aL1857L
asV2010-02-25
p55
(lp56
I1
aL1930L
asVintroduc
p57
(lp58
I1
aL1971L
asV2011-08-31
p59
(lp60
I1
aL2013L
asV7
p61
(lp62
I1
aL2051L
asVdownstream
p63
(lp64
I1
aL2089L
asVes2209215t3
p65
(lp66
I1
aL2127L
asVdisclos
p67
(lp68
I2
aL2168L
asVapt.
p69
(lp70
I1
aL2244L
asVwave
p71
(lp72
I1
aL2282L
asVelectron
p73
(lp74
I3
aL2324L
asVmechan
p75
(lp76
I1
aL2431L
asVelectrod
p77
(lp78
I1
aL2473L
asVe03c1
p79
(lp80
I1
aL25590L
asVep1918441a1
p81
(lp82
I1
aL2556L
asVfukuoka
p83
(lp84
I1
aL2594L
asVjugong
p85
(lp86
I1
aL2632L
asVupc
p87
(lp88
I3
aL2670L
asVcn101173451a
p89
(lp90
I1
aL2782L
asVsang
p91
(lp92
I2
aL2820L
asVsmall
p93
(lp94
I2
aL2893L
asVenjoy
p95
(lp96
I1
aL2970L
asVupper
p97
(lp98
I1
aL3008L
asV2011-08
p99
(lp100
I1
aL3050L
asVsmaller
p101
(lp102
I1
aL3088L
asV26472
p103
(lp104
I1
aL3129L
asVwo2011104633a3
p105
(lp106
I1
aL19960L
asV2011-02
p107
(lp108
I2
aL3212L
asV196
p109
(lp110
I1
aL3284L
asV2011-06
p111
(lp112
I1
aL3322L
asVpressur
p113
(lp114
I2
aL3363L
asVpass
p115
(lp116
I2
aL3439L
asVthrottl
p117
(lp118
I2
aL41660L
asVair
p119
(lp120
I3
aL32945L
asVport
p121
(lp122
I1
aL3694L
asVus20080099052a1
p123
(lp124
I1
aL3736L
asV2007-08
p125
(lp126
I1
aL3774L
asVschwanh
p127
(lp128
I1
aL3812L
asV2009-12-03
p129
(lp130
I1
aL3850L
asVneg
p131
(lp132
I1
aL3891L
asVsection
p133
(lp134
I8
aL3932L
asV26093
p135
(lp136
I1
aL4215L
asVuniform
p137
(lp138
I1
aL4256L
asVagent/attorney
p139
(lp140
I2
aL4294L
asV239/1
p141
(lp142
I1
aL4363L
asVintersect
p143
(lp144
I1
aL4405L
asVukigai
p145
(lp146
I1
aL33131L
asV;
p147
(lp148
I4
aL4524L
asVmethod
p149
(lp150
I3
aL4666L
asVfujiwara
p151
(lp152
I1
aL4773L
asV2011-09-01
p153
(lp154
I1
aL28049L
asVfull
p155
(lp156
I1
aL4856L
asVlee
p157
(lp158
I2
aL4897L
asV23665
p159
(lp160
I1
aL5011L
asVgener
p161
(lp162
I7
aL5052L
asVmicrobubbl
p163
(lp164
I2
aL5303L
asVwater
p165
(lp166
I5
aL5379L
asVaddress
p167
(lp168
I8
aL5553L
asVi.e
p169
(lp170
I1
aL5836L
asValong
p171
(lp172
I2
aL5877L
asVbecom
p173
(lp174
I1
aL5953L
asVsinc
p175
(lp176
I1
aL5994L
asVvolumin
p177
(lp178
I1
aL6036L
asVlarger
p179
(lp180
I1
aL6074L
asVkr1020080092196a
p181
(lp182
I1
aL6115L
asVb60s3/00
p183
(lp184
I1
aL6157L
asVamount
p185
(lp186
I2
aL6198L
asV31179
p187
(lp188
I1
aL6271L
asVep2011250197
p189
(lp190
I1
aL6312L
asVchang
p191
(lp192
I1
aL6350L
asVnarrow
p193
(lp194
I1
aL6388L
asVde69818716d1
p195
(lp196
I1
aL6429L
asVipc
p197
(lp198
I8
aL6470L
asVdiamet
p199
(lp200
I1
aL6753L
asVconfigur
p201
(lp202
I2
aL26429L
asVblockag
p203
(lp204
I1
aL6835L
asVus20080250823a1
p205
(lp206
I1
aL6877L
asVfamili
p207
(lp208
I8
aL6919L
asV1st
p209
(lp210
I8
aL7202L
asVinstal
p211
(lp212
I1
aL7485L
asVunit
p213
(lp214
I2
aL7523L
asVuse
p215
(lp216
I5
aL7741L
asVfrom
p217
(lp218
I4
aL7995L
asVstream
p219
(lp220
I2
aL8136L
asVusa
p221
(lp222
I3
aL8212L
asV&
p223
(lp224
I2
aL8324L
asV2008-02
p225
(lp226
I1
aL8397L
asVd06f39/02
p227
(lp228
I1
aL8439L
asV2008-05
p229
(lp230
I1
aL8480L
asVd06f39/00
p231
(lp232
I1
aL8518L
asVokano
p233
(lp234
I1
aL32572L
asV6
p235
(lp236
I4
aL8601L
asVtype
p237
(lp238
I8
aL8739L
asVmore
p239
(lp240
I1
aL9022L
asVb05c3/00
p241
(lp242
I1
aL9064L
asVon
p243
(lp244
I2
aL42450L
asVline
p245
(lp246
I2
aL45014L
asVanwaltssoziet
p247
(lp248
I1
aL9188L
asVhwanggolmaeul
p249
(lp250
I1
aL9226L
asVparticular
p251
(lp252
I1
aL9264L
asVhole
p253
(lp254
I2
aL9306L
asVname=
p255
(lp256
I8
aL9379L
asVrhian
p257
(lp258
I1
aL9670L
asV68/5c
p259
(lp260
I1
aL9708L
asV1998
p261
(lp262
I1
aL9750L
asV26446
p263
(lp264
I1
aL4815L
asVkatsuya
p265
(lp266
I1
aL38162L
asVcan
p267
(lp268
I3
aL9833L
asVcn1167843c
p269
(lp270
I1
aL9940L
asV21319
p271
(lp272
I1
aL33928L
asVcontrol
p273
(lp274
I2
aL10022L
asVf1
p275
(lp276
I1
aL10094L
asV2008-10
p277
(lp278
I1
aL42852L
asV20060107215
p279
(lp280
I1
aL10173L
asVru2007132752a
p281
(lp282
I1
aL10211L
asVagent
p283
(lp284
I2
aL10290L
asV239
p285
(lp286
I2
aL10366L
asVyutaka
p287
(lp288
I1
aL10443L
asVmade
p289
(lp290
I1
aL45777L
asVcontraction/enlarg
p291
(lp292
I1
aL10481L
asVsurfac
p293
(lp294
I2
aL10522L
asVcours
p295
(lp296
I1
aL10598L
asVohashi
p297
(lp298
I1
aL10639L
asVdivid
p299
(lp300
I1
aL10677L
asVcylind
p301
(lp302
I1
aL10715L
asV20255
p303
(lp304
I1
aL10757L
asV1
p305
(lp306
I8
aL10798L
asVhot
p307
(lp308
I1
aL11081L
asVcomb-lik
p309
(lp310
I1
aL11123L
asVnara
p311
(lp312
I1
aL15706L
asVsato
p313
(lp314
I1
aL11207L
asVproduct
p315
(lp316
I1
aL11245L
asVmay
p317
(lp318
I1
aL11286L
asVep2361689a1
p319
(lp320
I1
aL11328L
asVb05b1/00
p321
(lp322
I1
aL11366L
asVlaundri
p323
(lp324
I2
aL11408L
asVe03c1/04
p325
(lp326
I1
aL11481L
asVdate
p327
(lp328
I8
aL11519L
asVsuch
p329
(lp330
I1
aL11802L
asVsuck
p331
(lp332
I1
aL11843L
asVwo2011066805a1
p333
(lp334
I1
aL19877L
asVshigeki
p335
(lp336
I1
aL11926L
asVa
p337
(lp338
I8
aL11968L
asV2008-10-16
p339
(lp340
I1
aL12255L
asV2009-06-22
p341
(lp342
I1
aL12297L
asVliquid
p343
(lp344
I1
aL12339L
asVdocdb
p345
(lp346
I3
aL12381L
asVminim
p347
(lp348
I1
aL34669L
asVcorrespond
p349
(lp350
I1
aL12526L
asVproduc
p351
(lp352
I1
aL12568L
asVcaus
p353
(lp354
I1
aL12606L
asV)
p355
(lp356
I8
aL34711L
asVyangdeok-2-dong
p357
(lp358
I1
aL12927L
asVso
p359
(lp360
I4
aL12965L
asVallow
p361
(lp362
I2
aL13106L
asVorder
p363
(lp364
I1
aL13179L
asVno.
p365
(lp366
I1
aL13220L
asVsook
p367
(lp368
I2
aL13258L
asVhiroshi
p369
(lp370
I1
aL13331L
asVouter
p371
(lp372
I2
aL29807L
asV2010-06-25
p373
(lp374
I1
aL13372L
asVcircumfer
p375
(lp376
I1
aL13414L
asVthrough
p377
(lp378
I2
aL13456L
asV2010-06
p379
(lp380
I2
aL13570L
asVequip
p381
(lp382
I2
aL13647L
asVvari
p383
(lp384
I1
aL13723L
asV24
p385
(lp386
I1
aL13761L
asVmember
p387
(lp388
I8
aL35388L
asVgroup
p389
(lp390
I8
aL13837L
asV21
p391
(lp392
I1
aL14120L
asV22
p393
(lp394
I1
aL14158L
asV23
p395
(lp396
I1
aL14196L
asVpassag
p397
(lp398
I1
aL14234L
asVd06f35/00
p399
(lp400
I1
aL14276L
asV,
p401
(lp402
I8
aL14314L
asVkitakyusyu-shi
p403
(lp404
I1
aL14603L
asVfujikawa
p405
(lp406
I1
aL14682L
asV659-7
p407
(lp408
I1
aL14724L
asVmain
p409
(lp410
I2
aL14762L
asV2011
p411
(lp412
I4
aL14838L
asV<
p413
(lp414
I8
aL14979L
asV2012
p415
(lp416
I1
aL15270L
asVthen
p417
(lp418
I1
aL15312L
asV2011-06-09
p419
(lp420
I1
aL15353L
asVthereof
p421
(lp422
I2
aL15394L
asVone
p423
(lp424
I2
aL15470L
asVpaldal-gu
p425
(lp426
I1
aL15547L
asVintroduct
p427
(lp428
I1
aL15585L
asVimura
p429
(lp430
I1
aL15627L
asV2008-05-07
p431
(lp432
I1
aL27458L
asVfine-bubbl
p433
(lp434
I1
aL11165L
asVdrop
p435
(lp436
I1
aL15748L
asVsepar
p437
(lp438
I1
aL15786L
asVaerat
p439
(lp440
I1
aL15827L
asV2010-02-18
p441
(lp442
I1
aL15865L
asVcompris
p443
(lp444
I1
aL15903L
asVeach
p445
(lp446
I1
aL15944L
asV|
p447
(lp448
I8
aL15985L
asVmean
p449
(lp450
I2
aL16273L
asVweight
p451
(lp452
I1
aL16345L
asVhyun
p453
(lp454
I2
aL16383L
asVreplac
p455
(lp456
I1
aL16456L
asV10-2007-0035779
p457
(lp458
I1
aL16497L
asVcontinu
p459
(lp460
I1
aL16539L
asVb08b3
p461
(lp462
I1
aL16577L
asVyear
p463
(lp464
I8
aL16618L
asVep
p465
(lp466
I2
aL16901L
asVcn101285254a
p467
(lp468
I1
aL16970L
asVru2360052c2
p469
(lp470
I1
aL17012L
asVhyundai-hometown
p471
(lp472
I1
aL17050L
asVinfluenc
p473
(lp474
I1
aL17088L
asVe03c
p475
(lp476
I1
aL835L
asVdischarg
p477
(lp478
I1
aL17237L
asVbubbl
p479
(lp480
I5
aL17275L
asVmaetan-3-dong
p481
(lp482
I1
aL17448L
asVadapt
p483
(lp484
I1
aL17486L
asVrel
p485
(lp486
I2
aL17524L
asVbubl
p487
(lp488
I1
aL17596L
asVplural
p489
(lp490
I1
aL17637L
asVinou
p491
(lp492
I1
aL17675L
asVrisen
p493
(lp494
I1
aL17716L
asVbase
p495
(lp496
I1
aL17798L
asV243
p497
(lp498
I1
aL17840L
asVput
p499
(lp500
I2
aL17878L
asV2010033979
p501
(lp502
I1
aL17954L
asV239/102.2
p503
(lp504
I1
aL17992L
asVnemoto
p505
(lp506
I1
aL18034L
asVmasanori
p507
(lp508
I1
aL18075L
asVveloc
p509
(lp510
I1
aL18117L
asVturn
p511
(lp512
I1
aL18158L
asVoutsid
p513
(lp514
I1
aL18200L
asVversion=
p515
(lp516
I8
aL44119L
asVep0870505a1
p517
(lp518
I1
aL18283L
asVoper
p519
(lp520
I1
aL18321L
asVnagata
p521
(lp522
I1
aL18363L
asVrang
p523
(lp524
I1
aL18401L
asVvehicl
p525
(lp526
I1
aL18443L
asVfeel
p527
(lp528
I1
aL18484L
asV38480
p529
(lp530
I1
aL4970L
asVep1302585a1
p531
(lp532
I1
aL18846L
asV2006-11-01
p533
(lp534
I1
aL18884L
asVwash
p535
(lp536
I4
aL18922L
asV2011-09
p537
(lp538
I1
aL19064L
asVhoon
p539
(lp540
I1
aL19105L
asVdong
p541
(lp542
I1
aL19143L
asVmist
p543
(lp544
I1
aL19185L
asVopen
p545
(lp546
I1
aL19227L
asVprimari
p547
(lp548
I8
aL19269L
asVsize
p549
(lp550
I1
aL19552L
asVprioriti
p551
(lp552
I7
aL19590L
asVdiffer
p553
(lp554
I1
aL19836L
asVb05b1/08
p555
(lp556
I1
aL11884L
asVconvent
p557
(lp558
I1
aL19918L
asVsystem
p559
(lp560
I1
aL20001L
asVleast
p561
(lp562
I1
aL20042L
asVwo0006821a1
p563
(lp564
I1
aL39046L
asV2
p565
(lp566
I2
aL20080L
asVcite
p567
(lp568
I8
aL20196L
asVstore
p569
(lp570
I1
aL20479L
asVinclud
p571
(lp572
I4
aL44527L
asVthat
p573
(lp574
I5
aL20596L
asVpark
p575
(lp576
I1
aL20772L
asVpart
p577
(lp578
I2
aL20814L
asV21306
p579
(lp580
I1
aL20891L
asVnumber
p581
(lp582
I8
aL18563L
asVbubble-gener
p583
(lp584
I1
aL20932L
asVthan
p585
(lp586
I1
aL20973L
asVinventor
p587
(lp588
I6
aL21014L
asVd06
p589
(lp590
I4
aL21225L
asVkind
p591
(lp592
I8
aL21366L
asVb
p593
(lp594
I3
aL21649L
asVprovid
p595
(lp596
I4
aL21760L
asVgotten
p597
(lp598
I1
aL21902L
asVremov
p599
(lp600
I2
aL21944L
asVshower
p601
(lp602
I1
aL22020L
asVstr
p603
(lp604
I8
aL22058L
asVwere
p605
(lp606
I1
aL22349L
asVarrang
p607
(lp608
I1
aL22387L
asVventuri
p609
(lp610
I1
aL22429L
asVpct/kr1998/000359
p611
(lp612
I1
aL22470L
asVresult
p613
(lp614
I2
aL22511L
asVand
p615
(lp616
I8
aL22587L
asV1.0
p617
(lp618
I8
aL22872L
asVsaitama
p619
(lp620
I1
aL23155L
asVb05c3/10
p621
(lp622
I1
aL23197L
asVram
p623
(lp624
I2
aL23238L
asV38738
p625
(lp626
I1
aL23311L
asVseo
p627
(lp628
I1
aL28252L
asV20013
p629
(lp630
I1
aL23390L
asVhave
p631
(lp632
I3
aL23431L
asV1998-11
p633
(lp634
I1
aL23541L
asVkinkeldey
p635
(lp636
I1
aL28132L
asVmin
p637
(lp638
I2
aL23582L
asV24066
p639
(lp640
I1
aL23655L
asVmix
p641
(lp642
I1
aL23696L
asVwhich
p643
(lp644
I6
aL23738L
asVchannel
p645
(lp646
I1
aL23951L
asVaichi-ken
p647
(lp648
I1
aL23989L
asVexcit
p649
(lp650
I1
aL24030L
asVdetect
p651
(lp652
I1
aL28734L
asVpyo
p653
(lp654
I2
aL24155L
asVclass
p655
(lp656
I8
aL24228L
asV802-8601
p657
(lp658
I1
aL24511L
asVeject
p659
(lp660
I2
aL24549L
asVejector
p661
(lp662
I1
aL24622L
asVdoc
p663
(lp664
I8
aL24664L
asVgyeonggi-do
p665
(lp666
I1
aL24947L
asVflow
p667
(lp668
I2
aL24985L
asVface
p669
(lp670
I1
aL25061L
asVkr
p671
(lp672
I3
aL25103L
asVmabuk-ri
p673
(lp674
I1
aL25211L
asVflow-out
p675
(lp676
I1
aL25249L
asVclean
p677
(lp678
I2
aL25290L
asVapparatu
p679
(lp680
I2
aL25366L
asV2010
p681
(lp682
I3
aL25438L
asV20844
p683
(lp684
I1
aL2515L
asVtoyota-cho
p685
(lp686
I1
aL25628L
asVfine
p687
(lp688
I2
aL25669L
asVb08b3/08
p689
(lp690
I1
aL1490L
asVxml
p691
(lp692
I8
aL25782L
asV2011-02-18
p693
(lp694
I1
aL26065L
asVonli
p695
(lp696
I1
aL26103L
asV(
p697
(lp698
I8
aL26145L
asV2009-12-29
p699
(lp700
I1
aL6794L
asVsolut
p701
(lp702
I1
aL26505L
asV3
p703
(lp704
I8
aL28772L
asV2009-148112
p705
(lp706
I1
aL26589L
asVkitakyushu-shi
p707
(lp708
I1
aL26631L
asV2-chome
p709
(lp710
I1
aL26669L
asV8
p711
(lp712
I2
aL26707L
asVjae
p713
(lp714
I1
aL26782L
asVe03c1/84
p715
(lp716
I1
aL26824L
asVplate
p717
(lp718
I1
aL26862L
asVb05b
p719
(lp720
I2
aL26903L
asV27927
p721
(lp722
I1
aL26980L
asVwide
p723
(lp724
I1
aL27021L
asV152-1303
p725
(lp726
I1
aL33093L
asVda
p727
(lp728
I1
aL27063L
asV25216
p729
(lp730
I1
aL27101L
asVoutlet
p731
(lp732
I2
aL27142L
asVincreas
p733
(lp734
I1
aL27218L
asVsuwon-si
p735
(lp736
I2
aL27260L
asV2010-12
p737
(lp738
I1
aL27333L
asV2012-04
p739
(lp740
I1
aL27374L
asVenabl
p741
(lp742
I1
aL27416L
asVnecker
p743
(lp744
I1
aL15668L
asVbe
p745
(lp746
I4
aL41522L
asV200910250314.6
p747
(lp748
I1
aL27496L
asVpublic
p749
(lp750
I8
aL27537L
asV416
p751
(lp752
I1
aL27820L
asVwo2008155272a1
p753
(lp754
I1
aL27858L
asVintegr
p755
(lp756
I1
aL27896L
asVcontain
p757
(lp758
I3
aL27938L
asVresist
p759
(lp760
I1
aL28090L
asVare
p761
(lp762
I4
aL7596L
asVmasahiro
p763
(lp764
I1
aL28170L
asV31185
p765
(lp766
I1
aL28211L
asVkr1020080039647a
p767
(lp768
I1
aL23352L
asV/doc
p769
(lp770
I8
aL28294L
asVimprov
p771
(lp772
I1
aL36696L
asVparticl
p773
(lp774
I1
aL28577L
asVb05b1
p775
(lp776
I1
aL28619L
asV#
p777
(lp778
I2
aL28661L
asV2007-04-11
p779
(lp780
I1
aL24113L
asVpump
p781
(lp782
I1
aL26547L
asVbetween
p783
(lp784
I2
aL29055L
asV22242
p785
(lp786
I1
aL29131L
asVco.
p787
(lp788
I4
aL29172L
asVaccord
p789
(lp790
I1
aL29314L
asVwo
p791
(lp792
I3
aL29352L
asVjp
p793
(lp794
I4
aL29540L
asVkitayusyu-shi
p795
(lp796
I1
aL29461L
asVde69818716t2
p797
(lp798
I1
aL29683L
asVorific
p799
(lp800
I1
aL29724L
asV34915
p801
(lp802
I1
aL29766L
asV20
p803
(lp804
I1
aL17757L
asVtub
p805
(lp806
I2
aL29883L
asV2000-05
p807
(lp808
I1
aL29959L
asVkokurakita-ku
p809
(lp810
I1
aL30000L
asV24037
p811
(lp812
I1
aL24072L
asVacoust
p813
(lp814
I1
aL30080L
asVdrum
p815
(lp816
I1
aL30122L
asVimmers
p817
(lp818
I1
aL30164L
asVcontract
p819
(lp820
I1
aL30205L
asVforeign
p821
(lp822
I1
aL30246L
asVs
p823
(lp824
I8
aL30288L
asV1998-11-10
p825
(lp826
I1
aL30571L
asVus13/379358
p827
(lp828
I1
aL30612L
asVcountri
p829
(lp830
I7
aL30695L
asVus12/071914
p831
(lp832
I1
aL30941L
asVload
p833
(lp834
I1
aL30983L
asVtoyota-shi
p835
(lp836
I1
aL31021L
asVacceler
p837
(lp838
I1
aL31062L
asVcn
p839
(lp840
I1
aL31103L
asVexcess
p841
(lp842
I1
aL31185L
asV2nd
p843
(lp844
I1
aL31226L
asVyuji
p845
(lp846
I1
aL31264L
asVus5295373
p847
(lp848
I1
aL49323L
asVsuppli
p849
(lp850
I4
aL31305L
asV68
p851
(lp852
I1
aL31446L
asVrespect
p853
(lp854
I1
aL31488L
asV100
p855
(lp856
I1
aL31526L
asV2000
p857
(lp858
I1
aL49443L
asVus12/823814
p859
(lp860
I1
aL31567L
asVyeon
p861
(lp862
I2
aL31609L
asV200910265894.6
p863
(lp864
I1
aL31682L
asVdue
p865
(lp866
I2
aL31723L
asV.
p867
(lp868
I8
aL31799L
asVelectr
p869
(lp870
I1
aL32082L
asV>
p871
(lp872
I8
aL32124L
asVboth
p873
(lp874
I1
aL32415L
asVwith
p875
(lp876
I7
aL45130L
asVyongin-si
p877
(lp878
I2
aL32457L
asVpiezoelectr
p879
(lp880
I1
aL32530L
asVthose
p881
(lp882
I1
aL32614L
asVus20120097752a1
p883
(lp884
I1
aL32655L
asVtank
p885
(lp886
I1
aL32697L
asV2010040275
p887
(lp888
I1
aL32738L
asVus20110315796a1
p889
(lp890
I1
aL32779L
asVmight
p891
(lp892
I1
aL32821L
asValign
p893
(lp894
I1
aL32863L
asVintak
p895
(lp896
I1
aL32904L
asV25991
p897
(lp898
I1
aL3653L
asVminami
p899
(lp900
I1
aL33055L
asVnear
p901
(lp902
I1
aL10249L
asVb05
p903
(lp904
I2
aL4447L
asVabov
p905
(lp906
I1
aL33169L
asVusser
p907
(lp908
I1
aL33211L
asVb08
p909
(lp910
I1
aL46217L
asVryong
p911
(lp912
I1
aL33291L
asV20809
p913
(lp914
I1
aL33333L
asVpropag
p915
(lp916
I1
aL33374L
asV36335
p917
(lp918
I1
aL33416L
asVis
p919
(lp920
I8
aL33457L
asVdae-yeong
p921
(lp922
I1
aL9147L
asVit
p923
(lp924
I2
aL33852L
asVb08b3/10
p925
(lp926
I1
aL9981L
asV26519
p927
(lp928
I1
aL33969L
asVin
p929
(lp930
I6
aL34010L
asVcarbon
p931
(lp932
I1
aL34223L
asV/str
p933
(lp934
I8
aL34264L
asVif
p935
(lp936
I2
aL34555L
asVhong
p937
(lp938
I1
aL34628L
asV232-1802
p939
(lp940
I1
aL12488L
asVpatent
p941
(lp942
I8
aL12644L
asV0
p943
(lp944
I8
aL34995L
asVsame
p945
(lp946
I2
aL35278L
asVwherein
p947
(lp948
I1
aL35350L
asV2007-08-27
p949
(lp950
I1
aL13799L
asVgranlees
p951
(lp952
I1
aL35671L
asVdocument
p953
(lp954
I8
aL35709L
asVexhaust
p955
(lp956
I1
aL35992L
asVoil
p957
(lp958
I1
aL36033L
asV1-1
p959
(lp960
I1
aL36074L
asVupon
p961
(lp962
I1
aL36112L
asVeffect
p963
(lp964
I2
aL36150L
asVrain
p965
(lp966
I1
aL36222L
asVus5590551
p967
(lp968
I1
aL38601L
asVcapabl
p969
(lp970
I1
aL36301L
asVassigne
p971
(lp972
I7
aL36339L
asVuser
p973
(lp974
I1
aL36585L
asVkim
p975
(lp976
I2
aL36623L
asV39640
p977
(lp978
I1
aL18522L
asVlower
p979
(lp980
I1
aL36737L
asVtakahiro
p981
(lp982
I1
aL36779L
asVb05b17/00
p983
(lp984
I1
aL36817L
asV24072
p985
(lp986
I1
aL36859L
asVthu
p987
(lp988
I1
aL36900L
asVwell
p989
(lp990
I1
aL36942L
asVhwaseong-si
p991
(lp992
I1
aL36983L
asVwithout
p993
(lp994
I1
aL37025L
asVltd.
p995
(lp996
I5
aL37067L
asVtitl
p997
(lp998
I8
aL47480L
asVthe
p999
(lp1000
I8
aL37241L
asVepa
p1001
(lp1002
I2
aL37531L
asVclog
p1003
(lp1004
I1
aL37600L
asVcoaxial
p1005
(lp1006
I1
aL38722L
asVdioxid
p1007
(lp1008
I1
aL37683L
asVoak
p1009
(lp1010
I2
aL47763L
asV33521
p1011
(lp1012
I1
aL37766L
asVdose
p1013
(lp1014
I1
aL37807L
asVshape
p1015
(lp1016
I1
aL37848L
asVaihara
p1017
(lp1018
I1
aL37889L
asV2008-02-27
p1019
(lp1020
I1
aL37927L
asVgyeongsangnam-do
p1021
(lp1022
I1
aL37969L
asVspeed
p1023
(lp1024
I2
aL38007L
asVautom
p1025
(lp1026
I1
aL38080L
asVep1129250b1
p1027
(lp1028
I1
aL38121L
asV4
p1029
(lp1030
I1
aL13529L
asVwet
p1031
(lp1032
I1
aL38200L
asV5
p1033
(lp1034
I8
aL48237L
asVapplic
p1035
(lp1036
I8
aL38280L
asVstockmair
p1037
(lp1038
I1
aL38563L
asVpct/ib2011/000563
p1039
(lp1040
I1
aL36260L
asV2011-12
p1041
(lp1042
I1
aL38639L
asVrealiz
p1043
(lp1044
I1
aL38681L
asVburden
p1045
(lp1046
I1
aL37642L
asVvacuum
p1047
(lp1048
I1
aL38763L
asVamp
p1049
(lp1050
I1
aL38804L
asVcircul
p1051
(lp1052
I1
aL47206L
asVcircumferenti
p1053
(lp1054
I1
aL38842L
asVdaewoo
p1055
(lp1056
I1
aL38884L
asVrear
p1057
(lp1058
I1
aL38925L
asVyeongtong-dong
p1059
(lp1060
I1
aL38966L
asVinsert
p1061
(lp1062
I1
aL39004L
asV28023
p1063
(lp1064
I1
aL14641L
asVd
p1065
(lp1066
I4
aL39084L
asVnozzl
p1067
(lp1068
I3
aL17130L
asVwo2000028129a1
p1069
(lp1070
I1
aL39508L
asVyouhei
p1071
(lp1072
I1
aL39549L
asVmanual
p1073
(lp1074
I1
aL39591L
asVe03
p1075
(lp1076
I1
aL39632L
asVcollect
p1077
(lp1078
I1
aL30654L
asVt
p1079
(lp1080
I1
aL39711L
asV200
p1081
(lp1082
I1
aL39749L
asVtoyota
p1083
(lp1084
I1
aL39790L
asVkaisha
p1085
(lp1086
I1
aL39831L
asVsimpl
p1087
(lp1088
I1
aL39872L
asV2010-06-02
p1089
(lp1090
I1
aL39914L
asVokamoto
p1091
(lp1092
I1
aL39956L
asVrins
p1093
(lp1094
I1
aL39994L
asV9800359
p1095
(lp1096
I1
aL40035L
asV23572
p1097
(lp1098
I1
aL25549L
asVfor
p1099
(lp1100
I4
aL40117L
asVbottom
p1101
(lp1102
I1
aL40262L
asVtube
p1103
(lp1104
I1
aL40304L
asVtoto
p1105
(lp1106
I1
aL40345L
asV/
p1107
(lp1108
I1
aL873L
asVlarg
p1109
(lp1110
I3
aL40666L
asVcondit
p1111
(lp1112
I1
aL40773L
asV?
p1113
(lp1114
I8
aL40815L
asVrefer
p1115
(lp1116
I8
aL41098L
asVmachin
p1117
(lp1118
I4
aL41381L
asVcore
p1119
(lp1120
I1
aL3170L
asVd06f
p1121
(lp1122
I4
aL3512L
asVishigami
p1123
(lp1124
I1
aL41733L
asV300
p1125
(lp1126
I1
aL41775L
asVbo
p1127
(lp1128
I2
aL41816L
asV266101
p1129
(lp1130
I1
aL41889L
asVcn1327494a
p1131
(lp1132
I1
aL41930L
asV26426
p1133
(lp1134
I1
aL41971L
asV23707
p1135
(lp1136
I1
aL42012L
asVpanason
p1137
(lp1138
I1
aL8559L
asVauto-ad
p1139
(lp1140
I1
aL42336L
asVseong
p1141
(lp1142
I2
aL42377L
asV68/5.c
p1143
(lp1144
I1
aL9105L
asVd06f39/08
p1145
(lp1146
I1
aL42523L
asVof
p1147
(lp1148
I8
aL42565L
asVkozuka
p1149
(lp1150
I1
aL10132L
asVside
p1151
(lp1152
I3
aL33741L
asV19994
p1153
(lp1154
I1
aL46094L
asV22253
p1155
(lp1156
I1
aL42932L
asVor
p1157
(lp1158
I2
aL7919L
asVblock
p1159
(lp1160
I1
aL43015L
asVheight
p1161
(lp1162
I1
aL43057L
asV2000-05-18
p1163
(lp1164
I1
aL43098L
asVeffici
p1165
(lp1166
I1
aL43139L
asVyeongtong-gu
p1167
(lp1168
I1
aL43180L
asVinto
p1169
(lp1170
I4
aL43218L
asVwithin
p1171
(lp1172
I8
aL43363L
asVtwo
p1173
(lp1174
I3
aL43646L
asVdaeleon
p1175
(lp1176
I1
aL43757L
asVep0495168a1
p1177
(lp1178
I1
aL43799L
asVus2003230122a1
p1179
(lp1180
I1
aL43840L
asVinsuffici
p1181
(lp1182
I1
aL43878L
asV30465
p1183
(lp1184
I1
aL43920L
asV103-1201
p1185
(lp1186
I1
aL43961L
asVinstitut
p1187
(lp1188
I1
aL43999L
asV21525
p1189
(lp1190
I1
aL44037L
asVarea
p1191
(lp1192
I1
aL44078L
asV23810
p1193
(lp1194
I1
aL18242L
asV2012-04-26
p1195
(lp1196
I1
aL44402L
asVbodi
p1197
(lp1198
I1
aL30038L
asVb08b
p1199
(lp1200
I1
aL44444L
asVinterfac
p1201
(lp1202
I1
aL44485L
asVinner
p1203
(lp1204
I2
aL20520L
asVjane
p1205
(lp1206
I1
aL44665L
asVosaka
p1207
(lp1208
I1
aL44703L
asVform
p1209
(lp1210
I4
aL44745L
asVdroplet
p1211
(lp1212
I1
aL49056L
asVbut
p1213
(lp1214
I1
aL44931L
asVsubstrat
p1215
(lp1216
I1
aL44972L
asVeas
p1217
(lp1218
I1
aL25741L
asVha
p1219
(lp1220
I1
aL45089L
asVpct/cn2010/079417
p1221
(lp1222
I1
aL31144L
asV221
p1223
(lp1224
I1
aL45377L
asV220
p1225
(lp1226
I1
aL45415L
asVcount
p1227
(lp1228
I8
aL45453L
asVcommun
p1229
(lp1230
I1
aL45736L
asVtherethrough
p1231
(lp1232
I1
aL42973L
asVhoewon-gu
p1233
(lp1234
I1
aL45819L
asVup
p1235
(lp1236
I1
aL45857L
asVus
p1237
(lp1238
I3
aL45899L
asV20329
p1239
(lp1240
I1
aL46011L
asVbelow
p1241
(lp1242
I1
aL46052L
asV2010-12-03
p1243
(lp1244
I1
aL20155L
asVep1129250a1
p1245
(lp1246
I1
aL46135L
asV19996
p1247
(lp1248
I1
aL29499L
asVb05b7/04
p1249
(lp1250
I1
aL42894L
asVshandong
p1251
(lp1252
I1
aL46258L
asVpil
p1253
(lp1254
I1
aL46299L
asVad
p1255
(lp1256
I1
aL46341L
asVabstract
p1257
(lp1258
I8
aL46382L
asVan
p1259
(lp1260
I5
aL46665L
asV''
p1261
(lp1262
I8
aL46843L
asVas
p1263
(lp1264
I2
aL47134L
asVexist
p1265
(lp1266
I1
aL33249L
asVat
p1267
(lp1268
I2
aL47248L
asVb05b1/18
p1269
(lp1270
I1
aL47320L
asVwork
p1271
(lp1272
I1
aL9791L
asVmutual
p1273
(lp1274
I1
aL47358L
asVsusumu
p1275
(lp1276
I1
aL47400L
asVno
p1277
(lp1278
I1
aL47442L
asVconstitut
p1279
(lp1280
I1
aL40076L
asVwhen
p1281
(lp1282
I1
aL37724L
asVyear/month
p1283
(lp1284
I8
aL39225L
asVreduct
p1285
(lp1286
I1
aL47912L
asVother
p1287
(lp1288
I8
aL47954L
asV239/589
p1289
(lp1290
I1
aL38238L
asVd06f29/00
p1291
(lp1292
I1
aL48520L
asV471-8571
p1293
(lp1294
I1
aL48562L
asV38598
p1295
(lp1296
I1
aL48603L
asVcenter
p1297
(lp1298
I1
aL48644L
asVa1
p1299
(lp1300
I7
aL48686L
asVa3
p1301
(lp1302
I1
aL48933L
asV21496
p1303
(lp1304
I1
aL48974L
asV21495
p1305
(lp1306
I1
aL49015L
asVjidosha
p1307
(lp1308
I1
aL44890L
asVb05b17
p1309
(lp1310
I1
aL49094L
asVland
p1311
(lp1312
I1
aL49136L
asVe
p1313
(lp1314
I1
aL49174L
asVsamsung
p1315
(lp1316
I2
aL49212L
asVnakashima
p1317
(lp1318
I1
aL49285L
asVep0735178a1
p1319
(lp1320
I1
aL46176L
asVkanji
p1321
(lp1322
I1
aL49361L
asV35768
p1323
(lp1324
I1
aL49402L
asVportion
p1325
(lp1326
I2
aL47836L
asV2011-12-29
p1327
(lp1328
I1
aL49484L
asV2007
p1329
(lp1330
I1
aL49526L
asVtime
p1331
(lp1332
I1
aL49564L
asV2008
p1333
(lp1334
I2
aL49605L
asVavoid
p1335
(lp1336
I1
aL49678L
asVkiyotak
p1337
(lp1338
I1
aL49719L
as.(lp0
S'EP1918441A1.xml'
p1
aS'EP2361689A1.xml'
p2
aS'US20080250823A1.xml'
p3
aS'US20110315796A1.xml'
p4
aS'US20120097752A1.xml'
p5
aS'WO2000028129A1.xml'
p6
aS'WO2011066805A1.xml'
p7
aS'WO2011104633A3.xml'
p8
a.(dp0
S'US20120097752A1'
p1
F17.63688067151096
sS'US20080250823A1'
p2
F16.790674642227632
sS'US20110315796A1'
p3
F16.870979880429037
sS'EP2361689A1'
p4
F18.327961805068078
sS'WO2011104633A3'
p5
F17.19995191327925
sS'WO2000028129A1'
p6
F17.32579608220206
sS'WO2011066805A1'
p7
F19.729957759609334
sS'EP1918441A1'
p8
F18.13884315690391
s.