(lp0
(S'EP1918441A1'
p1
I2
tp2
a.(lp0
(S'EP1918441A1'
p1
I1
tp2
a.(lp0
(S'EP1918441A1'
p1
I1
tp2
a(S'EP2361689A1'
p3
I1
tp4
a(S'US20080250823A1'
p5
I2
tp6
a(S'US20110315796A1'
p7
I2
tp8
a(S'US20120097752A1'
p9
I2
tp10
a(S'WO2000028129A1'
p11
I1
tp12
a(S'WO2011066805A1'
p13
I1
tp14
a(S'WO2011104633A3'
p15
I1
tp16
a.(lp0
(S'EP1918441A1'
p1
I1
tp2
a(S'EP2361689A1'
p3
I1
tp4
a(S'US20080250823A1'
p5
I1
tp6
a(S'US20110315796A1'
p7
I1
tp8
a(S'US20120097752A1'
p9
I1
tp10
a(S'WO2000028129A1'
p11
I1
tp12
a(S'WO2011066805A1'
p13
I1
tp14
a(S'WO2011104633A3'
p15
I1
tp16
a.(lp0
(S'EP2361689A1'
p1
I1
tp2
a.(lp0
(S'EP1918441A1'
p1
I1
tp2
a.(lp0
(S'EP1918441A1'
p1
I2
tp2
a.(lp0
(S'WO2011066805A1'
p1
I1
tp2
a.(lp0
(S'EP2361689A1'
p1
I1
tp2
a.(lp0
(S'EP2361689A1'
p1
I1
tp2
a.(lp0
(S'WO2000028129A1'
p1
I4
tp2
a.(lp0
(S'US20120097752A1'
p1
I2
tp2
a.(lp0
(S'WO2011066805A1'
p1
I2
tp2
a.(lp0
(S'EP1918441A1'
p1
I1
tp2
a.(lp0
(S'EP1918441A1'
p1
I1
tp2
a.(lp0
(S'WO2011104633A3'
p1
I6
tp2
a.(lp0
(S'US20110315796A1'
p1
I2
tp2
a(S'WO2000028129A1'
p3
I1
tp4
a.(lp0
(S'EP1918441A1'
p1
I2
tp2
a.(lp0
(S'EP1918441A1'
p1
I1
tp2
a(S'US20080250823A1'
p3
I2
tp4
a.(lp0
(S'US20080250823A1'
p1
I1
tp2
a(S'WO2000028129A1'
p3
I1
tp4
a(S'WO2011066805A1'
p5
I1
tp6
a.(lp0
(S'EP1918441A1'
p1
I1
tp2
a.(lp0
(S'WO2000028129A1'
p1
I3
tp2
a.(lp0
(S'WO2011104633A3'
p1
I2
tp2
a.(lp0
(S'EP1918441A1'
p1
I4
tp2
a(S'EP2361689A1'
p3
I8
tp4
a(S'US20080250823A1'
p5
I6
tp6
a(S'US20110315796A1'
p7
I6
tp8
a(S'US20120097752A1'
p9
I1
tp10
a(S'WO2011066805A1'
p11
I1
tp12
a(S'WO2011104633A3'
p13
I6
tp14
a.(lp0
(S'WO2011066805A1'
p1
I1
tp2
a.(lp0
(S'EP1918441A1'
p1
I1
tp2
a.(lp0
(S'EP2361689A1'
p1
I1
tp2
a(S'US20120097752A1'
p3
I2
tp4
a.(lp0
(S'WO2011104633A3'
p1
I1
tp2
a.(lp0
(S'US20110315796A1'
p1
I2
tp2
a.(lp0
(S'EP2361689A1'
p1
I1
tp2
a.(lp0
(S'EP1918441A1'
p1
I1
tp2
a.(lp0
(S'EP2361689A1'
p1
I1
tp2
a.(lp0
(S'WO2000028129A1'
p1
I1
tp2
a.(lp0
(S'US20080250823A1'
p1
I1
tp2
a(S'WO2011066805A1'
p3
I1
tp4
a.(lp0
(S'EP1918441A1'
p1
I4
tp2
a.(lp0
(S'US20120097752A1'
p1
I4
tp2
a.(lp0
(S'EP1918441A1'
p1
I3
tp2
a(S'US20080250823A1'
p3
I2
tp4
a(S'WO2000028129A1'
p5
I2
tp6
a.(lp0
(S'US20120097752A1'
p1
I1
tp2
a.(lp0
(S'US20120097752A1'
p1
I2
tp2
a.(lp0
(S'WO2011066805A1'
p1
I5
tp2
a.(lp0
(S'EP1918441A1'
p1
I2
tp2
a.(lp0
(S'EP2361689A1'
p1
I9
tp2
a.(lp0
(S'EP1918441A1'
p1
I1
tp2
a.(lp0
(S'US20080250823A1'
p1
I3
tp2
a(S'US20110315796A1'
p3
I3
tp4
a(S'US20120097752A1'
p5
I3
tp6
a.(lp0
(S'EP1918441A1'
p1
I1
tp2
a.(lp0
(S'EP1918441A1'
p1
I1
tp2
a(S'US20080250823A1'
p3
I1
tp4
a.(lp0
(S'US20110315796A1'
p1
I3
tp2
a(S'US20120097752A1'
p3
I2
tp4
a.(lp0
(S'EP2361689A1'
p1
I1
tp2
a.(lp0
(S'US20120097752A1'
p1
I1
tp2
a.(lp0
(S'EP2361689A1'
p1
I1
tp2
a.(lp0
(S'WO2000028129A1'
p1
I3
tp2
a.(lp0
(S'WO2011066805A1'
p1
I4
tp2
a.(lp0
(S'US20110315796A1'
p1
I4
tp2
a.(lp0
(S'EP2361689A1'
p1
I1
tp2
a(S'WO2011104633A3'
p3
I1
tp4
a.(lp0
(S'EP1918441A1'
p1
I2
tp2
a.(lp0
(S'WO2011066805A1'
p1
I1
tp2
a.(lp0
(S'US20110315796A1'
p1
I1
tp2
a(S'WO2011066805A1'
p3
I3
tp4
a.(lp0
(S'EP2361689A1'
p1
I1
tp2
a(S'US20110315796A1'
p3
I1
tp4
a.(lp0
(S'EP1918441A1'
p1
I1
tp2
a(S'US20080250823A1'
p3
I1
tp4
a(S'WO2000028129A1'
p5
I1
tp6
a(S'WO2011066805A1'
p7
I1
tp8
a.(lp0
(S'WO2011066805A1'
p1
I2
tp2
a.(lp0
(S'US20110315796A1'
p1
I1
tp2
a.(lp0
(S'EP1918441A1'
p1
I1
tp2
a.(lp0
(S'EP1918441A1'
p1
I1
tp2
a.(lp0
(S'EP1918441A1'
p1
I1
tp2
a.(lp0
(S'WO2011066805A1'
p1
I1
tp2
a.(lp0
(S'WO2011066805A1'
p1
I3
tp2
a.(lp0
(S'EP1918441A1'
p1
I1
tp2
a(S'EP2361689A1'
p3
I1
tp4
a(S'US20080250823A1'
p5
I1
tp6
a(S'US20110315796A1'
p7
I1
tp8
a(S'US20120097752A1'
p9
I1
tp10
a(S'WO2000028129A1'
p11
I1
tp12
a(S'WO2011066805A1'
p13
I1
tp14
a(S'WO2011104633A3'
p15
I1
tp16
a.(lp0
(S'WO2011066805A1'
p1
I2
tp2
a.(lp0
(S'EP2361689A1'
p1
I1
tp2
a.(lp0
(S'EP1918441A1'
p1
I1
tp2
a(S'EP2361689A1'
p3
I1
tp4
a.(lp0
(S'US20120097752A1'
p1
I2
tp2
a.(lp0
(S'US20120097752A1'
p1
I1
tp2
a.(lp0
(S'US20110315796A1'
p1
I1
tp2
a(S'US20120097752A1'
p3
I1
tp4
a.(lp0
(S'EP1918441A1'
p1
I4
tp2
a(S'US20080250823A1'
p3
I1
tp4
a(S'WO2011066805A1'
p5
I93
tp6
a(S'WO2011104633A3'
p7
I4
tp8
a.(lp0
(S'EP1918441A1'
p1
I3
tp2
a(S'US20120097752A1'
p3
I2
tp4
a(S'WO2011066805A1'
p5
I2
tp6
a.(lp0
(S'US20120097752A1'
p1
I1
tp2
a.(lp0
(S'WO2011066805A1'
p1
I2
tp2
a.(lp0
(S'WO2011066805A1'
p1
I1
tp2
a.(lp0
(S'EP1918441A1'
p1
I2
tp2
a(S'US20080250823A1'
p3
I1
tp4
a.(lp0
(S'WO2011066805A1'
p1
I2
tp2
a.(lp0
(S'WO2011066805A1'
p1
I2
tp2
a.(lp0
(S'EP1918441A1'
p1
I1
tp2
a(S'US20080250823A1'
p3
I7
tp4
a(S'US20110315796A1'
p5
I4
tp6
a(S'US20120097752A1'
p7
I12
tp8
a(S'WO2000028129A1'
p9
I4
tp10
a(S'WO2011066805A1'
p11
I1
tp12
a(S'WO2011104633A3'
p13
I3
tp14
a.(lp0
(S'US20110315796A1'
p1
I4
tp2
a(S'WO2011104633A3'
p3
I5
tp4
a.(lp0
(S'EP1918441A1'
p1
I1
tp2
a(S'EP2361689A1'
p3
I9
tp4
a(S'US20080250823A1'
p5
I4
tp6
a(S'US20110315796A1'
p7
I6
tp8
a(S'WO2011066805A1'
p9
I9
tp10
a.(lp0
(S'EP1918441A1'
p1
I4
tp2
a(S'EP2361689A1'
p3
I4
tp4
a(S'US20080250823A1'
p5
I4
tp6
a(S'US20110315796A1'
p7
I2
tp8
a(S'US20120097752A1'
p9
I4
tp10
a(S'WO2000028129A1'
p11
I4
tp12
a(S'WO2011066805A1'
p13
I2
tp14
a(S'WO2011104633A3'
p15
I2
tp16
a.(lp0
(S'WO2011066805A1'
p1
I1
tp2
a.(lp0
(S'US20120097752A1'
p1
I1
tp2
a(S'WO2000028129A1'
p3
I1
tp4
a.(lp0
(S'WO2011066805A1'
p1
I1
tp2
a.(lp0
(S'US20120097752A1'
p1
I1
tp2
a.(lp0
(S'EP2361689A1'
p1
I1
tp2
a.(lp0
(S'WO2000028129A1'
p1
I2
tp2
a.(lp0
(S'US20080250823A1'
p1
I1
tp2
a.(lp0
(S'WO2011104633A3'
p1
I1
tp2
a.(lp0
(S'EP1918441A1'
p1
I3
tp2
a(S'US20080250823A1'
p3
I1
tp4
a.(lp0
(S'WO2011066805A1'
p1
I2
tp2
a.(lp0
(S'EP2361689A1'
p1
I1
tp2
a.(lp0
(S'EP2361689A1'
p1
I1
tp2
a.(lp0
(S'WO2011066805A1'
p1
I1
tp2
a.(lp0
(S'WO2000028129A1'
p1
I1
tp2
a.(lp0
(S'EP1918441A1'
p1
I6
tp2
a(S'EP2361689A1'
p3
I6
tp4
a(S'US20080250823A1'
p5
I6
tp6
a(S'US20110315796A1'
p7
I6
tp8
a(S'US20120097752A1'
p9
I6
tp10
a(S'WO2000028129A1'
p11
I6
tp12
a(S'WO2011066805A1'
p13
I6
tp14
a(S'WO2011104633A3'
p15
I6
tp16
a.(lp0
(S'WO2000028129A1'
p1
I5
tp2
a.(lp0
(S'WO2011066805A1'
p1
I1
tp2
a.(lp0
(S'US20110315796A1'
p1
I1
tp2
a.(lp0
(S'US20080250823A1'
p1
I2
tp2
a.(lp0
(S'EP1918441A1'
p1
I3
tp2
a(S'EP2361689A1'
p3
I2
tp4
a(S'US20080250823A1'
p5
I3
tp6
a(S'US20110315796A1'
p7
I2
tp8
a(S'US20120097752A1'
p9
I2
tp10
a(S'WO2000028129A1'
p11
I3
tp12
a(S'WO2011066805A1'
p13
I2
tp14
a(S'WO2011104633A3'
p15
I2
tp16
a.(lp0
(S'EP1918441A1'
p1
I4
tp2
a(S'EP2361689A1'
p3
I4
tp4
a(S'US20080250823A1'
p5
I4
tp6
a(S'US20110315796A1'
p7
I2
tp8
a(S'US20120097752A1'
p9
I4
tp10
a(S'WO2000028129A1'
p11
I4
tp12
a(S'WO2011066805A1'
p13
I2
tp14
a(S'WO2011104633A3'
p15
I2
tp16
a.(lp0
(S'EP2361689A1'
p1
I1
tp2
a.(lp0
(S'EP2361689A1'
p1
I7
tp2
a(S'US20080250823A1'
p3
I1
tp4
a.(lp0
(S'US20110315796A1'
p1
I1
tp2
a(S'US20120097752A1'
p3
I1
tp4
a(S'WO2000028129A1'
p5
I9
tp6
a(S'WO2011066805A1'
p7
I2
tp8
a.(lp0
(S'EP2361689A1'
p1
I1
tp2
a(S'US20080250823A1'
p3
I1
tp4
a(S'US20110315796A1'
p5
I1
tp6
a(S'US20120097752A1'
p7
I1
tp8
a(S'WO2011104633A3'
p9
I1
tp10
a.(lp0
(S'US20120097752A1'
p1
I5
tp2
a(S'WO2011066805A1'
p3
I1
tp4
a.(lp0
(S'EP2361689A1'
p1
I1
tp2
a(S'US20110315796A1'
p3
I1
tp4
a(S'WO2000028129A1'
p5
I2
tp6
a(S'WO2011104633A3'
p7
I2
tp8
a.(lp0
(S'US20120097752A1'
p1
I1
tp2
a(S'WO2011066805A1'
p3
I1
tp4
a.(lp0
(S'US20080250823A1'
p1
I1
tp2
a(S'US20110315796A1'
p3
I1
tp4
a(S'US20120097752A1'
p5
I1
tp6
a.(lp0
(S'EP1918441A1'
p1
I4
tp2
a(S'WO2011066805A1'
p3
I93
tp4
a.(lp0
(S'US20080250823A1'
p1
I1
tp2
a.(lp0
(S'WO2011066805A1'
p1
I2
tp2
a.(lp0
(S'EP1918441A1'
p1
I1
tp2
a.(lp0
(S'WO2000028129A1'
p1
I2
tp2
a.(lp0
(S'US20120097752A1'
p1
I2
tp2
a.(lp0
(S'EP1918441A1'
p1
I1
tp2
a(S'EP2361689A1'
p3
I1
tp4
a(S'US20080250823A1'
p5
I1
tp6
a(S'WO2011104633A3'
p7
I1
tp8
a.(lp0
(S'EP1918441A1'
p1
I2
tp2
a(S'EP2361689A1'
p3
I1
tp4
a(S'US20080250823A1'
p5
I1
tp6
a(S'US20110315796A1'
p7
I1
tp8
a(S'US20120097752A1'
p9
I1
tp10
a(S'WO2000028129A1'
p11
I4
tp12
a(S'WO2011066805A1'
p13
I1
tp14
a(S'WO2011104633A3'
p15
I1
tp16
a.(lp0
(S'US20120097752A1'
p1
I1
tp2
a.(lp0
(S'WO2011104633A3'
p1
I1
tp2
a.(lp0
(S'US20080250823A1'
p1
I1
tp2
a.(lp0
(S'WO2000028129A1'
p1
I2
tp2
a.(lp0
(S'EP1918441A1'
p1
I1
tp2
a.(lp0
(S'EP1918441A1'
p1
I1
tp2
a.(lp0
(S'US20110315796A1'
p1
I1
tp2
a.(lp0
(S'EP2361689A1'
p1
I2
tp2
a(S'US20110315796A1'
p3
I3
tp4
a.(lp0
(S'EP1918441A1'
p1
I42
tp2
a(S'EP2361689A1'
p3
I38
tp4
a(S'US20080250823A1'
p5
I41
tp6
a(S'US20110315796A1'
p7
I32
tp8
a(S'US20120097752A1'
p9
I40
tp10
a(S'WO2000028129A1'
p11
I40
tp12
a(S'WO2011066805A1'
p13
I32
tp14
a(S'WO2011104633A3'
p15
I32
tp16
a.(lp0
(S'EP2361689A1'
p1
I1
tp2
a.(lp0
(S'US20080250823A1'
p1
I2
tp2
a.(lp0
(S'WO2000028129A1'
p1
I1
tp2
a.(lp0
(S'US20120097752A1'
p1
I2
tp2
a.(lp0
(S'EP2361689A1'
p1
I1
tp2
a(S'US20120097752A1'
p3
I1
tp4
a(S'WO2011066805A1'
p5
I1
tp6
a.(lp0
(S'WO2000028129A1'
p1
I1
tp2
a.(lp0
(S'WO2011104633A3'
p1
I1
tp2
a.(lp0
(S'EP1918441A1'
p1
I5
tp2
a(S'WO2011066805A1'
p3
I2
tp4
a.(lp0
(S'EP2361689A1'
p1
I1
tp2
a.(lp0
(S'WO2011104633A3'
p1
I1
tp2
a.(lp0
(S'EP1918441A1'
p1
I1
tp2
a.(lp0
(S'EP1918441A1'
p1
I1
tp2
a.(lp0
(S'WO2011104633A3'
p1
I2
tp2
a.(lp0
(S'US20110315796A1'
p1
I1
tp2
a(S'WO2011066805A1'
p3
I8
tp4
a.(lp0
(S'US20110315796A1'
p1
I1
tp2
a(S'US20120097752A1'
p3
I1
tp4
a.(lp0
(S'EP2361689A1'
p1
I1
tp2
a.(lp0
(S'WO2000028129A1'
p1
I4
tp2
a.(lp0
(S'US20120097752A1'
p1
I8
tp2
a(S'WO2011104633A3'
p3
I5
tp4
a.(lp0
(S'WO2011066805A1'
p1
I1
tp2
a.(lp0
(S'EP2361689A1'
p1
I1
tp2
a.(lp0
(S'EP2361689A1'
p1
I1
tp2
a.(lp0
(S'US20110315796A1'
p1
I4
tp2
a.(lp0
(S'WO2011066805A1'
p1
I2
tp2
a.(lp0
(S'EP1918441A1'
p1
I5
tp2
a(S'EP2361689A1'
p3
I1
tp4
a(S'US20080250823A1'
p5
I1
tp6
a(S'US20110315796A1'
p7
I1
tp8
a(S'US20120097752A1'
p9
I1
tp10
a(S'WO2000028129A1'
p11
I2
tp12
a(S'WO2011066805A1'
p13
I1
tp14
a(S'WO2011104633A3'
p15
I7
tp16
a.(lp0
(S'US20110315796A1'
p1
I5
tp2
a.(lp0
(S'US20120097752A1'
p1
I1
tp2
a.(lp0
(S'US20120097752A1'
p1
I6
tp2
a.(lp0
(S'EP2361689A1'
p1
I1
tp2
a.(lp0
(S'WO2011104633A3'
p1
I4
tp2
a.(lp0
(S'US20120097752A1'
p1
I2
tp2
a.(lp0
(S'EP2361689A1'
p1
I1
tp2
a.(lp0
(S'US20110315796A1'
p1
I2
tp2
a.(lp0
(S'EP1918441A1'
p1
I5
tp2
a(S'US20080250823A1'
p3
I1
tp4
a.(lp0
(S'EP2361689A1'
p1
I1
tp2
a.(lp0
(S'EP1918441A1'
p1
I3
tp2
a(S'EP2361689A1'
p3
I3
tp4
a(S'US20080250823A1'
p5
I3
tp6
a(S'US20110315796A1'
p7
I2
tp8
a(S'US20120097752A1'
p9
I3
tp10
a(S'WO2000028129A1'
p11
I3
tp12
a(S'WO2011066805A1'
p13
I3
tp14
a(S'WO2011104633A3'
p15
I3
tp16
a.(lp0
(S'WO2011104633A3'
p1
I1
tp2
a.(lp0
(S'WO2011066805A1'
p1
I1
tp2
a.(lp0
(S'US20120097752A1'
p1
I1
tp2
a.(lp0
(S'US20120097752A1'
p1
I1
tp2
a.(lp0
(S'EP1918441A1'
p1
I2
tp2
a(S'EP2361689A1'
p3
I8
tp4
a(S'US20080250823A1'
p5
I7
tp6
a(S'US20110315796A1'
p7
I7
tp8
a(S'US20120097752A1'
p9
I10
tp10
a(S'WO2000028129A1'
p11
I15
tp12
a(S'WO2011066805A1'
p13
I11
tp14
a(S'WO2011104633A3'
p15
I10
tp16
a.(lp0
(S'US20080250823A1'
p1
I1
tp2
a.(lp0
(S'US20120097752A1'
p1
I1
tp2
a.(lp0
(S'US20120097752A1'
p1
I4
tp2
a.(lp0
(S'EP1918441A1'
p1
I1
tp2
a(S'US20080250823A1'
p3
I1
tp4
a(S'WO2000028129A1'
p5
I1
tp6
a.(lp0
(S'EP1918441A1'
p1
I1
tp2
a.(lp0
(S'US20110315796A1'
p1
I1
tp2
a.(lp0
(S'EP2361689A1'
p1
I2
tp2
a.(lp0
(S'EP2361689A1'
p1
I1
tp2
a.(lp0
(S'EP1918441A1'
p1
I1
tp2
a(S'EP2361689A1'
p3
I1
tp4
a(S'US20080250823A1'
p5
I1
tp6
a(S'US20110315796A1'
p7
I1
tp8
a(S'US20120097752A1'
p9
I1
tp10
a(S'WO2000028129A1'
p11
I1
tp12
a(S'WO2011066805A1'
p13
I1
tp14
a(S'WO2011104633A3'
p15
I1
tp16
a.(lp0
(S'EP1918441A1'
p1
I1
tp2
a.(lp0
(S'EP2361689A1'
p1
I1
tp2
a(S'US20120097752A1'
p3
I2
tp4
a(S'WO2000028129A1'
p5
I1
tp6
a(S'WO2011066805A1'
p7
I1
tp8
a.(lp0
(S'EP2361689A1'
p1
I1
tp2
a(S'US20080250823A1'
p3
I1
tp4
a.(lp0
(S'WO2011104633A3'
p1
I2
tp2
a.(lp0
(S'EP1918441A1'
p1
I4
tp2
a.(lp0
(S'EP1918441A1'
p1
I1
tp2
a(S'US20080250823A1'
p3
I1
tp4
a.(lp0
(S'WO2011104633A3'
p1
I1
tp2
a.(lp0
(S'US20110315796A1'
p1
I1
tp2
a.(lp0
(S'US20110315796A1'
p1
I2
tp2
a.(lp0
(S'EP2361689A1'
p1
I1
tp2
a(S'US20110315796A1'
p3
I2
tp4
a.(lp0
(S'WO2011104633A3'
p1
I1
tp2
a.(lp0
(S'US20110315796A1'
p1
I1
tp2
a(S'US20120097752A1'
p3
I1
tp4
a.(lp0
(S'US20120097752A1'
p1
I1
tp2
a(S'WO2000028129A1'
p3
I1
tp4
a.(lp0
(S'EP2361689A1'
p1
I1
tp2
a.(lp0
(S'EP2361689A1'
p1
I1
tp2
a.(lp0
(S'EP1918441A1'
p1
I1
tp2
a.(lp0
(S'EP1918441A1'
p1
I1
tp2
a(S'EP2361689A1'
p3
I1
tp4
a(S'US20080250823A1'
p5
I1
tp6
a(S'US20110315796A1'
p7
I1
tp8
a(S'US20120097752A1'
p9
I1
tp10
a(S'WO2000028129A1'
p11
I1
tp12
a(S'WO2011066805A1'
p13
I1
tp14
a(S'WO2011104633A3'
p15
I1
tp16
a.(lp0
(S'EP2361689A1'
p1
I2
tp2
a.(lp0
(S'EP2361689A1'
p1
I3
tp2
a.(lp0
(S'EP2361689A1'
p1
I1
tp2
a.(lp0
(S'US20080250823A1'
p1
I1
tp2
a.(lp0
(S'EP1918441A1'
p1
I2
tp2
a.(lp0
(S'EP1918441A1'
p1
I76
tp2
a(S'EP2361689A1'
p3
I80
tp4
a(S'US20080250823A1'
p5
I13
tp6
a(S'US20110315796A1'
p7
I11
tp8
a(S'US20120097752A1'
p9
I15
tp10
a(S'WO2000028129A1'
p11
I8
tp12
a(S'WO2011066805A1'
p13
I9
tp14
a(S'WO2011104633A3'
p15
I18
tp16
a.(lp0
(S'EP2361689A1'
p1
I1
tp2
a.(lp0
(S'WO2011066805A1'
p1
I6
tp2
a.(lp0
(S'US20110315796A1'
p1
I2
tp2
a.(lp0
(S'EP1918441A1'
p1
I1
tp2
a.(lp0
(S'US20110315796A1'
p1
I5
tp2
a(S'WO2011066805A1'
p3
I3
tp4
a.(lp0
(S'EP2361689A1'
p1
I2
tp2
a(S'US20110315796A1'
p3
I1
tp4
a(S'WO2011066805A1'
p5
I1
tp6
a(S'WO2011104633A3'
p7
I2
tp8
a.(lp0
(S'EP1918441A1'
p1
I87
tp2
a(S'EP2361689A1'
p3
I79
tp4
a(S'US20080250823A1'
p5
I85
tp6
a(S'US20110315796A1'
p7
I67
tp8
a(S'US20120097752A1'
p9
I83
tp10
a(S'WO2000028129A1'
p11
I79
tp12
a(S'WO2011066805A1'
p13
I67
tp14
a(S'WO2011104633A3'
p15
I67
tp16
a.(lp0
(S'US20120097752A1'
p1
I1
tp2
a.(lp0
(S'WO2011066805A1'
p1
I1
tp2
a.(lp0
(S'WO2011066805A1'
p1
I1
tp2
a.(lp0
(S'US20080250823A1'
p1
I1
tp2
a(S'WO2011066805A1'
p3
I2
tp4
a.(lp0
(S'US20080250823A1'
p1
I1
tp2
a(S'US20110315796A1'
p3
I1
tp4
a.(lp0
(S'EP1918441A1'
p1
I1
tp2
a.(lp0
(S'US20110315796A1'
p1
I1
tp2
a.(lp0
(S'WO2011104633A3'
p1
I1
tp2
a.(lp0
(S'EP1918441A1'
p1
I1
tp2
a.(lp0
(S'US20120097752A1'
p1
I1
tp2
a.(lp0
(S'EP2361689A1'
p1
I1
tp2
a.(lp0
(S'WO2011104633A3'
p1
I2
tp2
a.(lp0
(S'EP2361689A1'
p1
I2
tp2
a.(lp0
(S'EP2361689A1'
p1
I1
tp2
a.(lp0
(S'WO2011066805A1'
p1
I1
tp2
a.(lp0
(S'WO2000028129A1'
p1
I2
tp2
a.(lp0
(S'EP1918441A1'
p1
I21
tp2
a(S'EP2361689A1'
p3
I14
tp4
a(S'US20080250823A1'
p5
I16
tp6
a(S'US20110315796A1'
p7
I1
tp8
a(S'US20120097752A1'
p9
I7
tp10
a(S'WO2000028129A1'
p11
I9
tp12
a(S'WO2011066805A1'
p13
I17
tp14
a(S'WO2011104633A3'
p15
I12
tp16
a.(lp0
(S'EP2361689A1'
p1
I1
tp2
a(S'WO2011104633A3'
p3
I4
tp4
a.(lp0
(S'EP1918441A1'
p1
I1
tp2
a.(lp0
(S'EP1918441A1'
p1
I1
tp2
a(S'US20080250823A1'
p3
I1
tp4
a.(lp0
(S'WO2011066805A1'
p1
I1
tp2
a.(lp0
(S'US20080250823A1'
p1
I1
tp2
a.(lp0
(S'EP2361689A1'
p1
I1
tp2
a.(lp0
(S'WO2011104633A3'
p1
I1
tp2
a.(lp0
(S'EP1918441A1'
p1
I4
tp2
a(S'EP2361689A1'
p3
I4
tp4
a(S'US20080250823A1'
p5
I4
tp6
a(S'US20110315796A1'
p7
I4
tp8
a(S'US20120097752A1'
p9
I4
tp10
a(S'WO2000028129A1'
p11
I4
tp12
a(S'WO2011066805A1'
p13
I4
tp14
a(S'WO2011104633A3'
p15
I4
tp16
a.(lp0
(S'EP1918441A1'
p1
I1
tp2
a(S'EP2361689A1'
p3
I1
tp4
a.(lp0
(S'US20080250823A1'
p1
I1
tp2
a.(lp0
(S'EP1918441A1'
p1
I1
tp2
a.(lp0
(S'EP1918441A1'
p1
I2
tp2
a.(lp0
(S'US20110315796A1'
p1
I1
tp2
a.(lp0
(S'EP2361689A1'
p1
I3
tp2
a(S'US20110315796A1'
p3
I7
tp4
a(S'WO2000028129A1'
p5
I4
tp6
a.(lp0
(S'EP2361689A1'
p1
I1
tp2
a.(lp0
(S'EP1918441A1'
p1
I2
tp2
a(S'EP2361689A1'
p3
I3
tp4
a(S'US20080250823A1'
p5
I9
tp6
a(S'WO2000028129A1'
p7
I3
tp8
a(S'WO2011104633A3'
p9
I2
tp10
a.(lp0
(S'EP1918441A1'
p1
I1
tp2
a.(lp0
(S'EP2361689A1'
p1
I2
tp2
a.(lp0
(S'EP2361689A1'
p1
I1
tp2
a(S'WO2011066805A1'
p3
I1
tp4
a.(lp0
(S'WO2000028129A1'
p1
I1
tp2
a.(lp0
(S'EP2361689A1'
p1
I2
tp2
a.(lp0
(S'WO2011104633A3'
p1
I1
tp2
a.(lp0
(S'WO2011104633A3'
p1
I2
tp2
a.(lp0
(S'WO2011104633A3'
p1
I1
tp2
a.(lp0
(S'US20120097752A1'
p1
I1
tp2
a.(lp0
(S'EP2361689A1'
p1
I1
tp2
a.(lp0
(S'US20120097752A1'
p1
I1
tp2
a(S'WO2011104633A3'
p3
I1
tp4
a.(lp0
(S'EP2361689A1'
p1
I1
tp2
a.(lp0
(S'US20120097752A1'
p1
I1
tp2
a.(lp0
(S'WO2011104633A3'
p1
I1
tp2
a.(lp0
(S'US20120097752A1'
p1
I2
tp2
a.(lp0
(S'WO2011066805A1'
p1
I1
tp2
a.(lp0
(S'US20120097752A1'
p1
I1
tp2
a.(lp0
(S'US20110315796A1'
p1
I1
tp2
a.(lp0
(S'WO2011066805A1'
p1
I1
tp2
a.(lp0
(S'EP1918441A1'
p1
I1
tp2
a.(lp0
(S'US20120097752A1'
p1
I1
tp2
a.(lp0
(S'EP2361689A1'
p1
I1
tp2
a.(lp0
(S'US20120097752A1'
p1
I1
tp2
a.(lp0
(S'WO2011104633A3'
p1
I1
tp2
a.(lp0
(S'EP2361689A1'
p1
I1
tp2
a.(lp0
(S'WO2011066805A1'
p1
I3
tp2
a.(lp0
(S'EP1918441A1'
p1
I5
tp2
a(S'EP2361689A1'
p3
I5
tp4
a(S'US20080250823A1'
p5
I5
tp6
a(S'US20110315796A1'
p7
I3
tp8
a(S'US20120097752A1'
p9
I5
tp10
a(S'WO2000028129A1'
p11
I5
tp12
a(S'WO2011066805A1'
p13
I4
tp14
a(S'WO2011104633A3'
p15
I4
tp16
a.(lp0
(S'EP1918441A1'
p1
I1
tp2
a.(lp0
(S'EP1918441A1'
p1
I1
tp2
a.(lp0
(S'EP1918441A1'
p1
I8
tp2
a(S'US20080250823A1'
p3
I9
tp4
a(S'WO2000028129A1'
p5
I1
tp6
a(S'WO2011066805A1'
p7
I16
tp8
a.(lp0
(S'WO2011104633A3'
p1
I1
tp2
a.(lp0
(S'EP1918441A1'
p1
I1
tp2
a.(lp0
(S'US20080250823A1'
p1
I1
tp2
a.(lp0
(S'US20120097752A1'
p1
I6
tp2
a.(lp0
(S'US20110315796A1'
p1
I2
tp2
a.(lp0
(S'EP1918441A1'
p1
I1
tp2
a(S'EP2361689A1'
p3
I1
tp4
a(S'US20080250823A1'
p5
I2
tp6
a(S'US20110315796A1'
p7
I2
tp8
a(S'US20120097752A1'
p9
I2
tp10
a(S'WO2000028129A1'
p11
I1
tp12
a(S'WO2011066805A1'
p13
I1
tp14
a(S'WO2011104633A3'
p15
I1
tp16
a.(lp0
(S'EP2361689A1'
p1
I1
tp2
a.(lp0
(S'EP1918441A1'
p1
I3
tp2
a(S'EP2361689A1'
p3
I3
tp4
a(S'US20080250823A1'
p5
I3
tp6
a(S'US20120097752A1'
p7
I3
tp8
a(S'WO2000028129A1'
p9
I3
tp10
a(S'WO2011066805A1'
p11
I3
tp12
a(S'WO2011104633A3'
p13
I3
tp14
a.(lp0
(S'WO2000028129A1'
p1
I1
tp2
a.(lp0
(S'WO2011066805A1'
p1
I1
tp2
a.(lp0
(S'US20110315796A1'
p1
I1
tp2
a.(lp0
(S'WO2011104633A3'
p1
I1
tp2
a.(lp0
(S'WO2011104633A3'
p1
I2
tp2
a.(lp0
(S'EP2361689A1'
p1
I1
tp2
a.(lp0
(S'WO2000028129A1'
p1
I1
tp2
a(S'WO2011104633A3'
p3
I1
tp4
a.(lp0
(S'WO2011066805A1'
p1
I1
tp2
a.(lp0
(S'EP1918441A1'
p1
I7
tp2
a(S'EP2361689A1'
p3
I4
tp4
a(S'US20080250823A1'
p5
I4
tp6
a(S'US20110315796A1'
p7
I4
tp8
a(S'US20120097752A1'
p9
I4
tp10
a(S'WO2000028129A1'
p11
I6
tp12
a(S'WO2011066805A1'
p13
I4
tp14
a(S'WO2011104633A3'
p15
I4
tp16
a.(lp0
(S'WO2011104633A3'
p1
I2
tp2
a.(lp0
(S'US20110315796A1'
p1
I2
tp2
a(S'WO2000028129A1'
p3
I4
tp4
a.(lp0
(S'EP1918441A1'
p1
I1
tp2
a(S'US20120097752A1'
p3
I2
tp4
a(S'WO2000028129A1'
p5
I1
tp6
a(S'WO2011066805A1'
p7
I1
tp8
a(S'WO2011104633A3'
p9
I6
tp10
a.(lp0
(S'US20080250823A1'
p1
I1
tp2
a.(lp0
(S'US20110315796A1'
p1
I6
tp2
a(S'US20120097752A1'
p3
I1
tp4
a.(lp0
(S'WO2011066805A1'
p1
I1
tp2
a.(lp0
(S'WO2000028129A1'
p1
I3
tp2
a.(lp0
(S'WO2000028129A1'
p1
I5
tp2
a.(lp0
(S'EP1918441A1'
p1
I5
tp2
a(S'EP2361689A1'
p3
I5
tp4
a(S'US20080250823A1'
p5
I5
tp6
a(S'US20110315796A1'
p7
I5
tp8
a(S'US20120097752A1'
p9
I5
tp10
a(S'WO2000028129A1'
p11
I5
tp12
a.(lp0
(S'EP1918441A1'
p1
I1
tp2
a(S'US20080250823A1'
p3
I1
tp4
a(S'WO2000028129A1'
p5
I1
tp6
a(S'WO2011066805A1'
p7
I1
tp8
a.(lp0
(S'EP1918441A1'
p1
I1
tp2
a(S'EP2361689A1'
p3
I1
tp4
a(S'US20080250823A1'
p5
I1
tp6
a(S'US20110315796A1'
p7
I1
tp8
a(S'US20120097752A1'
p9
I2
tp10
a(S'WO2000028129A1'
p11
I1
tp12
a(S'WO2011066805A1'
p13
I1
tp14
a(S'WO2011104633A3'
p15
I1
tp16
a.(lp0
(S'US20110315796A1'
p1
I1
tp2
a(S'US20120097752A1'
p3
I1
tp4
a(S'WO2011104633A3'
p5
I1
tp6
a.(lp0
(S'EP2361689A1'
p1
I2
tp2
a(S'US20110315796A1'
p3
I3
tp4
a(S'US20120097752A1'
p5
I1
tp6
a(S'WO2011066805A1'
p7
I3
tp8
a.(lp0
(S'US20110315796A1'
p1
I1
tp2
a.(lp0
(S'US20110315796A1'
p1
I1
tp2
a(S'WO2011104633A3'
p3
I3
tp4
a.(lp0
(S'EP2361689A1'
p1
I5
tp2
a.(lp0
(S'EP1918441A1'
p1
I42
tp2
a(S'EP2361689A1'
p3
I38
tp4
a(S'US20080250823A1'
p5
I41
tp6
a(S'US20110315796A1'
p7
I32
tp8
a(S'US20120097752A1'
p9
I40
tp10
a(S'WO2000028129A1'
p11
I40
tp12
a(S'WO2011066805A1'
p13
I32
tp14
a(S'WO2011104633A3'
p15
I32
tp16
a.(lp0
(S'EP2361689A1'
p1
I1
tp2
a.(lp0
(S'US20120097752A1'
p1
I1
tp2
a.(lp0
(S'WO2011066805A1'
p1
I3
tp2
a.(lp0
(S'WO2000028129A1'
p1
I1
tp2
a.(lp0
(S'US20110315796A1'
p1
I1
tp2
a(S'WO2011104633A3'
p3
I1
tp4
a.(lp0
(S'EP1918441A1'
p1
I4
tp2
a(S'EP2361689A1'
p3
I2
tp4
a(S'US20080250823A1'
p5
I4
tp6
a(S'US20110315796A1'
p7
I4
tp8
a(S'US20120097752A1'
p9
I13
tp10
a(S'WO2000028129A1'
p11
I4
tp12
a(S'WO2011066805A1'
p13
I10
tp14
a(S'WO2011104633A3'
p15
I2
tp16
a.(lp0
(S'EP1918441A1'
p1
I1
tp2
a(S'EP2361689A1'
p3
I1
tp4
a(S'US20080250823A1'
p5
I1
tp6
a(S'US20110315796A1'
p7
I1
tp8
a(S'US20120097752A1'
p9
I1
tp10
a(S'WO2000028129A1'
p11
I1
tp12
a(S'WO2011066805A1'
p13
I1
tp14
a(S'WO2011104633A3'
p15
I1
tp16
a.(lp0
(S'US20110315796A1'
p1
I2
tp2
a.(lp0
(S'WO2011104633A3'
p1
I1
tp2
a.(lp0
(S'EP1918441A1'
p1
I2
tp2
a(S'US20080250823A1'
p3
I1
tp4
a.(lp0
(S'WO2011066805A1'
p1
I3
tp2
a.(lp0
(S'EP1918441A1'
p1
I1
tp2
a.(lp0
(S'WO2011066805A1'
p1
I1
tp2
a.(lp0
(S'US20080250823A1'
p1
I1
tp2
a(S'WO2000028129A1'
p3
I3
tp4
a(S'WO2011104633A3'
p5
I2
tp6
a.(lp0
(S'WO2000028129A1'
p1
I1
tp2
a.(lp0
(S'EP1918441A1'
p1
I1
tp2
a(S'US20080250823A1'
p3
I2
tp4
a.(lp0
(S'WO2011066805A1'
p1
I1
tp2
a.(lp0
(S'US20080250823A1'
p1
I1
tp2
a.(lp0
(S'EP2361689A1'
p1
I1
tp2
a(S'US20110315796A1'
p3
I1
tp4
a(S'US20120097752A1'
p5
I3
tp6
a(S'WO2000028129A1'
p7
I2
tp8
a(S'WO2011066805A1'
p9
I3
tp10
a(S'WO2011104633A3'
p11
I2
tp12
a.(lp0
(S'EP2361689A1'
p1
I2
tp2
a.(lp0
(S'WO2011104633A3'
p1
I6
tp2
a.(lp0
(S'US20120097752A1'
p1
I1
tp2
a.(lp0
(S'WO2011066805A1'
p1
I1
tp2
a.(lp0
(S'US20080250823A1'
p1
I1
tp2
a.(lp0
(S'EP1918441A1'
p1
I1
tp2
a(S'US20080250823A1'
p3
I1
tp4
a.(lp0
(S'EP1918441A1'
p1
I1
tp2
a(S'EP2361689A1'
p3
I1
tp4
a(S'US20080250823A1'
p5
I2
tp6
a(S'US20110315796A1'
p7
I2
tp8
a(S'US20120097752A1'
p9
I2
tp10
a(S'WO2000028129A1'
p11
I1
tp12
a(S'WO2011066805A1'
p13
I1
tp14
a(S'WO2011104633A3'
p15
I1
tp16
a.(lp0
(S'EP2361689A1'
p1
I8
tp2
a.(lp0
(S'EP2361689A1'
p1
I5
tp2
a(S'US20110315796A1'
p3
I1
tp4
a.(lp0
(S'US20080250823A1'
p1
I1
tp2
a.(lp0
(S'EP1918441A1'
p1
I1
tp2
a(S'EP2361689A1'
p3
I1
tp4
a(S'US20080250823A1'
p5
I1
tp6
a(S'US20110315796A1'
p7
I1
tp8
a(S'US20120097752A1'
p9
I1
tp10
a(S'WO2000028129A1'
p11
I1
tp12
a(S'WO2011066805A1'
p13
I1
tp14
a(S'WO2011104633A3'
p15
I1
tp16
a.(lp0
(S'EP1918441A1'
p1
I7
tp2
a.(lp0
(S'US20080250823A1'
p1
I1
tp2
a(S'WO2011104633A3'
p3
I1
tp4
a.(lp0
(S'US20110315796A1'
p1
I2
tp2
a.(lp0
(S'EP1918441A1'
p1
I9
tp2
a(S'US20080250823A1'
p3
I10
tp4
a(S'WO2000028129A1'
p5
I1
tp6
a.(lp0
(S'EP1918441A1'
p1
I2
tp2
a.(lp0
(S'WO2000028129A1'
p1
I3
tp2
a.(lp0
(S'US20110315796A1'
p1
I2
tp2
a(S'WO2011104633A3'
p3
I4
tp4
a.(lp0
(S'EP2361689A1'
p1
I3
tp2
a(S'WO2011104633A3'
p3
I1
tp4
a.(lp0
(S'US20110315796A1'
p1
I1
tp2
a(S'US20120097752A1'
p3
I1
tp4
a(S'WO2011066805A1'
p5
I1
tp6
a.(lp0
(S'WO2011066805A1'
p1
I6
tp2
a.(lp0
(S'EP2361689A1'
p1
I1
tp2
a.(lp0
(S'WO2011104633A3'
p1
I6
tp2
a.(lp0
(S'EP2361689A1'
p1
I1
tp2
a(S'WO2000028129A1'
p3
I2
tp4
a.(lp0
(S'WO2011066805A1'
p1
I1
tp2
a.(lp0
(S'EP1918441A1'
p1
I1
tp2
a(S'EP2361689A1'
p3
I1
tp4
a(S'US20080250823A1'
p5
I1
tp6
a(S'US20110315796A1'
p7
I1
tp8
a(S'US20120097752A1'
p9
I1
tp10
a(S'WO2000028129A1'
p11
I1
tp12
a(S'WO2011066805A1'
p13
I1
tp14
a(S'WO2011104633A3'
p15
I1
tp16
a.(lp0
(S'EP2361689A1'
p1
I1
tp2
a.(lp0
(S'US20110315796A1'
p1
I1
tp2
a.(lp0
(S'EP1918441A1'
p1
I6
tp2
a(S'EP2361689A1'
p3
I6
tp4
a(S'US20080250823A1'
p5
I6
tp6
a(S'US20110315796A1'
p7
I4
tp8
a(S'US20120097752A1'
p9
I6
tp10
a(S'WO2000028129A1'
p11
I8
tp12
a(S'WO2011066805A1'
p13
I4
tp14
a(S'WO2011104633A3'
p15
I11
tp16
a.(lp0
(S'US20120097752A1'
p1
I2
tp2
a(S'WO2011066805A1'
p3
I1
tp4
a.(lp0
(S'WO2011104633A3'
p1
I10
tp2
a.(lp0
(S'US20080250823A1'
p1
I1
tp2
a.(lp0
(S'US20120097752A1'
p1
I1
tp2
a.(lp0
(S'EP2361689A1'
p1
I3
tp2
a.(lp0
(S'EP2361689A1'
p1
I9
tp2
a.(lp0
(S'WO2000028129A1'
p1
I1
tp2
a(S'WO2011066805A1'
p3
I1
tp4
a.(lp0
(S'US20080250823A1'
p1
I1
tp2
a.(lp0
(S'EP2361689A1'
p1
I2
tp2
a.(lp0
(S'WO2000028129A1'
p1
I3
tp2
a.(lp0
(S'US20110315796A1'
p1
I1
tp2
a(S'US20120097752A1'
p3
I1
tp4
a.(lp0
(S'WO2011066805A1'
p1
I2
tp2
a.(lp0
(S'US20120097752A1'
p1
I1
tp2
a.(lp0
(S'EP1918441A1'
p1
I1
tp2
a.(lp0
(S'WO2011066805A1'
p1
I1
tp2
a.(lp0
(S'WO2000028129A1'
p1
I11
tp2
a(S'WO2011066805A1'
p3
I1
tp4
a.(lp0
(S'US20080250823A1'
p1
I1
tp2
a.(lp0
(S'EP1918441A1'
p1
I5
tp2
a(S'US20080250823A1'
p3
I4
tp4
a.(lp0
(S'WO2011066805A1'
p1
I1
tp2
a.(lp0
(S'US20120097752A1'
p1
I1
tp2
a.(lp0
(S'US20120097752A1'
p1
I2
tp2
a.(lp0
(S'EP1918441A1'
p1
I1
tp2
a.(lp0
(S'WO2011066805A1'
p1
I1
tp2
a.(lp0
(S'EP1918441A1'
p1
I3
tp2
a(S'EP2361689A1'
p3
I3
tp4
a(S'US20080250823A1'
p5
I3
tp6
a(S'US20110315796A1'
p7
I3
tp8
a(S'US20120097752A1'
p9
I3
tp10
a(S'WO2000028129A1'
p11
I3
tp12
a(S'WO2011066805A1'
p13
I3
tp14
a(S'WO2011104633A3'
p15
I3
tp16
a.(lp0
(S'EP1918441A1'
p1
I2
tp2
a.(lp0
(S'EP1918441A1'
p1
I1
tp2
a.(lp0
(S'US20080250823A1'
p1
I1
tp2
a.(lp0
(S'US20080250823A1'
p1
I1
tp2
a(S'US20110315796A1'
p3
I1
tp4
a(S'WO2011066805A1'
p5
I8
tp6
a.(lp0
(S'WO2011104633A3'
p1
I1
tp2
a.(lp0
(S'US20080250823A1'
p1
I1
tp2
a.(lp0
(S'EP1918441A1'
p1
I1
tp2
a.(lp0
(S'WO2011104633A3'
p1
I1
tp2
a.(lp0
(S'WO2011066805A1'
p1
I1
tp2
a.(lp0
(S'US20080250823A1'
p1
I1
tp2
a.(lp0
(S'EP1918441A1'
p1
I1
tp2
a(S'EP2361689A1'
p3
I1
tp4
a(S'US20080250823A1'
p5
I1
tp6
a(S'US20110315796A1'
p7
I1
tp8
a(S'US20120097752A1'
p9
I1
tp10
a(S'WO2000028129A1'
p11
I1
tp12
a(S'WO2011066805A1'
p13
I1
tp14
a(S'WO2011104633A3'
p15
I1
tp16
a.(lp0
(S'US20110315796A1'
p1
I2
tp2
a.(lp0
(S'US20110315796A1'
p1
I1
tp2
a.(lp0
(S'EP1918441A1'
p1
I3
tp2
a(S'WO2011066805A1'
p3
I93
tp4
a.(lp0
(S'EP1918441A1'
p1
I2
tp2
a.(lp0
(S'EP1918441A1'
p1
I1
tp2
a(S'EP2361689A1'
p3
I1
tp4
a(S'US20080250823A1'
p5
I2
tp6
a(S'US20110315796A1'
p7
I1
tp8
a(S'US20120097752A1'
p9
I2
tp10
a(S'WO2000028129A1'
p11
I1
tp12
a(S'WO2011066805A1'
p13
I1
tp14
a(S'WO2011104633A3'
p15
I2
tp16
a.(lp0
(S'US20110315796A1'
p1
I1
tp2
a(S'WO2011066805A1'
p3
I2
tp4
a.(lp0
(S'WO2011066805A1'
p1
I3
tp2
a.(lp0
(S'EP1918441A1'
p1
I3
tp2
a(S'US20080250823A1'
p3
I2
tp4
a(S'US20120097752A1'
p5
I2
tp6
a(S'WO2000028129A1'
p7
I2
tp8
a.(lp0
(S'EP1918441A1'
p1
I1
tp2
a.(lp0
(S'WO2000028129A1'
p1
I1
tp2
a(S'WO2011066805A1'
p3
I1
tp4
a(S'WO2011104633A3'
p5
I1
tp6
a.(lp0
(S'EP2361689A1'
p1
I5
tp2
a.(lp0
(S'WO2011066805A1'
p1
I1
tp2
a.(lp0
(S'EP2361689A1'
p1
I10
tp2
a(S'US20110315796A1'
p3
I2
tp4
a(S'US20120097752A1'
p5
I7
tp6
a(S'WO2011104633A3'
p7
I7
tp8
a.(lp0
(S'WO2000028129A1'
p1
I1
tp2
a.(lp0
(S'US20110315796A1'
p1
I1
tp2
a.(lp0
(S'WO2011066805A1'
p1
I2
tp2
a.(lp0
(S'US20110315796A1'
p1
I1
tp2
a(S'WO2000028129A1'
p3
I3
tp4
a.(lp0
(S'US20080250823A1'
p1
I2
tp2
a(S'WO2011066805A1'
p3
I3
tp4
a.(lp0
(S'WO2000028129A1'
p1
I1
tp2
a.(lp0
(S'EP2361689A1'
p1
I9
tp2
a.(lp0
(S'US20110315796A1'
p1
I5
tp2
a.(lp0
(S'US20120097752A1'
p1
I4
tp2
a.(lp0
(S'US20080250823A1'
p1
I4
tp2
a.(lp0
(S'WO2011104633A3'
p1
I1
tp2
a.(lp0
(S'WO2000028129A1'
p1
I5
tp2
a.(lp0
(S'US20110315796A1'
p1
I2
tp2
a.(lp0
(S'EP1918441A1'
p1
I4
tp2
a(S'EP2361689A1'
p3
I4
tp4
a(S'US20080250823A1'
p5
I4
tp6
a(S'US20110315796A1'
p7
I2
tp8
a(S'US20120097752A1'
p9
I4
tp10
a(S'WO2000028129A1'
p11
I4
tp12
a(S'WO2011066805A1'
p13
I2
tp14
a(S'WO2011104633A3'
p15
I2
tp16
a.(lp0
(S'WO2000028129A1'
p1
I2
tp2
a.(lp0
(S'US20120097752A1'
p1
I1
tp2
a.(lp0
(S'WO2011104633A3'
p1
I1
tp2
a.(lp0
(S'EP1918441A1'
p1
I1
tp2
a(S'EP2361689A1'
p3
I1
tp4
a(S'US20080250823A1'
p5
I1
tp6
a(S'US20120097752A1'
p7
I1
tp8
a(S'WO2000028129A1'
p9
I1
tp10
a(S'WO2011066805A1'
p11
I1
tp12
a(S'WO2011104633A3'
p13
I1
tp14
a.(lp0
(S'US20080250823A1'
p1
I1
tp2
a.(lp0
(S'EP1918441A1'
p1
I3
tp2
a.(lp0
(S'WO2011104633A3'
p1
I6
tp2
a.(lp0
(S'WO2011066805A1'
p1
I1
tp2
a.(lp0
(S'WO2011066805A1'
p1
I3
tp2
a.(lp0
(S'WO2011066805A1'
p1
I1
tp2
a.(lp0
(S'WO2011066805A1'
p1
I1
tp2
a.(lp0
(S'EP1918441A1'
p1
I1
tp2
a.(lp0
(S'WO2011104633A3'
p1
I1
tp2
a.(lp0
(S'EP2361689A1'
p1
I3
tp2
a(S'US20080250823A1'
p3
I1
tp4
a(S'WO2011066805A1'
p5
I5
tp6
a(S'WO2011104633A3'
p7
I3
tp8
a.(lp0
(S'US20080250823A1'
p1
I1
tp2
a.(lp0
(S'EP2361689A1'
p1
I1
tp2
a.(lp0
(S'WO2000028129A1'
p1
I1
tp2
a.(lp0
(S'US20110315796A1'
p1
I1
tp2
a.(lp0
(S'EP1918441A1'
p1
I1
tp2
a(S'US20080250823A1'
p3
I1
tp4
a.(lp0
(S'WO2011066805A1'
p1
I1
tp2
a.(lp0
(S'US20080250823A1'
p1
I1
tp2
a(S'WO2011066805A1'
p3
I1
tp4
a.(lp0
(S'EP1918441A1'
p1
I2
tp2
a(S'EP2361689A1'
p3
I2
tp4
a(S'US20080250823A1'
p5
I3
tp6
a(S'US20110315796A1'
p7
I3
tp8
a(S'US20120097752A1'
p9
I4
tp10
a(S'WO2000028129A1'
p11
I8
tp12
a(S'WO2011066805A1'
p13
I9
tp14
a(S'WO2011104633A3'
p15
I1
tp16
a.(lp0
(S'US20120097752A1'
p1
I2
tp2
a.(lp0
(S'EP1918441A1'
p1
I87
tp2
a(S'EP2361689A1'
p3
I79
tp4
a(S'US20080250823A1'
p5
I85
tp6
a(S'US20110315796A1'
p7
I67
tp8
a(S'US20120097752A1'
p9
I83
tp10
a(S'WO2000028129A1'
p11
I79
tp12
a(S'WO2011066805A1'
p13
I67
tp14
a(S'WO2011104633A3'
p15
I67
tp16
a.(lp0
(S'US20120097752A1'
p1
I1
tp2
a.(lp0
(S'EP1918441A1'
p1
I2
tp2
a(S'US20080250823A1'
p3
I1
tp4
a.(lp0
(S'US20120097752A1'
p1
I2
tp2
a.(lp0
(S'US20120097752A1'
p1
I2
tp2
a.(lp0
(S'WO2000028129A1'
p1
I1
tp2
a.(lp0
(S'US20120097752A1'
p1
I1
tp2
a.(lp0
(S'WO2011104633A3'
p1
I4
tp2
a.(lp0
(S'WO2011104633A3'
p1
I1
tp2
a.(lp0
(S'US20110315796A1'
p1
I1
tp2
a.(lp0
(S'US20110315796A1'
p1
I1
tp2
a.(lp0
(S'WO2000028129A1'
p1
I1
tp2
a.(lp0
(S'WO2011066805A1'
p1
I2
tp2
a.(lp0
(S'US20080250823A1'
p1
I1
tp2
a(S'WO2000028129A1'
p3
I7
tp4
a(S'WO2011104633A3'
p5
I1
tp6
a.(lp0
(S'EP2361689A1'
p1
I1
tp2
a.(lp0
(S'EP1918441A1'
p1
I1
tp2
a.(lp0
(S'EP2361689A1'
p1
I2
tp2
a.(lp0
(S'US20120097752A1'
p1
I1
tp2
a.(lp0
(S'EP1918441A1'
p1
I1
tp2
a.(lp0
(S'US20120097752A1'
p1
I1
tp2
a.(lp0
(S'US20080250823A1'
p1
I1
tp2
a.(lp0
(S'WO2011066805A1'
p1
I2
tp2
a.(lp0
(S'US20120097752A1'
p1
I1
tp2
a.(lp0
(S'WO2011066805A1'
p1
I1
tp2
a.(lp0
(S'EP1918441A1'
p1
I1
tp2
a(S'EP2361689A1'
p3
I2
tp4
a(S'US20080250823A1'
p5
I1
tp6
a(S'US20110315796A1'
p7
I7
tp8
a(S'US20120097752A1'
p9
I7
tp10
a(S'WO2000028129A1'
p11
I2
tp12
a(S'WO2011066805A1'
p13
I12
tp14
a(S'WO2011104633A3'
p15
I4
tp16
a.(lp0
(S'US20080250823A1'
p1
I1
tp2
a(S'US20120097752A1'
p3
I3
tp4
a(S'WO2011066805A1'
p5
I1
tp6
a.(lp0
(S'US20110315796A1'
p1
I1
tp2
a(S'WO2011066805A1'
p3
I1
tp4
a.(lp0
(S'WO2011066805A1'
p1
I2
tp2
a.(lp0
(S'WO2011066805A1'
p1
I2
tp2
a.(lp0
(S'EP2361689A1'
p1
I1
tp2
a(S'US20110315796A1'
p3
I4
tp4
a(S'US20120097752A1'
p5
I6
tp6
a(S'WO2000028129A1'
p7
I4
tp8
a(S'WO2011066805A1'
p9
I4
tp10
a(S'WO2011104633A3'
p11
I5
tp12
a.(lp0
(S'WO2011104633A3'
p1
I1
tp2
a.(lp0
(S'EP1918441A1'
p1
I42
tp2
a(S'EP2361689A1'
p3
I38
tp4
a(S'US20080250823A1'
p5
I41
tp6
a(S'US20110315796A1'
p7
I32
tp8
a(S'US20120097752A1'
p9
I40
tp10
a(S'WO2000028129A1'
p11
I36
tp12
a(S'WO2011066805A1'
p13
I32
tp14
a(S'WO2011104633A3'
p15
I32
tp16
a.(lp0
(S'EP2361689A1'
p1
I1
tp2
a(S'US20110315796A1'
p3
I1
tp4
a.(lp0
(S'WO2000028129A1'
p1
I2
tp2
a.(lp0
(S'US20080250823A1'
p1
I1
tp2
a.(lp0
(S'EP1918441A1'
p1
I6
tp2
a(S'EP2361689A1'
p3
I6
tp4
a(S'US20080250823A1'
p5
I6
tp6
a(S'US20110315796A1'
p7
I4
tp8
a(S'US20120097752A1'
p9
I6
tp10
a(S'WO2000028129A1'
p11
I8
tp12
a(S'WO2011066805A1'
p13
I4
tp14
a(S'WO2011104633A3'
p15
I11
tp16
a.(lp0
(S'EP1918441A1'
p1
I1
tp2
a(S'EP2361689A1'
p3
I6
tp4
a(S'US20080250823A1'
p5
I5
tp6
a(S'US20110315796A1'
p7
I6
tp8
a(S'US20120097752A1'
p9
I6
tp10
a(S'WO2000028129A1'
p11
I5
tp12
a(S'WO2011066805A1'
p13
I6
tp14
a(S'WO2011104633A3'
p15
I6
tp16
a.(lp0
(S'EP1918441A1'
p1
I2
tp2
a(S'WO2011066805A1'
p3
I1
tp4
a.(lp0
(S'EP2361689A1'
p1
I1
tp2
a.(lp0
(S'EP1918441A1'
p1
I3
tp2
a(S'EP2361689A1'
p3
I2
tp4
a(S'US20080250823A1'
p5
I3
tp6
a(S'US20110315796A1'
p7
I2
tp8
a(S'US20120097752A1'
p9
I2
tp10
a(S'WO2000028129A1'
p11
I3
tp12
a(S'WO2011066805A1'
p13
I2
tp14
a(S'WO2011104633A3'
p15
I2
tp16
a.(lp0
(S'EP2361689A1'
p1
I1
tp2
a.(lp0
(S'EP1918441A1'
p1
I1
tp2
a(S'EP2361689A1'
p3
I1
tp4
a(S'US20080250823A1'
p5
I1
tp6
a(S'US20110315796A1'
p7
I1
tp8
a(S'US20120097752A1'
p9
I1
tp10
a(S'WO2000028129A1'
p11
I1
tp12
a(S'WO2011066805A1'
p13
I1
tp14
a(S'WO2011104633A3'
p15
I1
tp16
a.(lp0
(S'WO2000028129A1'
p1
I4
tp2
a.(lp0
(S'WO2011104633A3'
p1
I2
tp2
a.(lp0
(S'EP2361689A1'
p1
I9
tp2
a.(lp0
(S'EP1918441A1'
p1
I2
tp2
a.(lp0
(S'EP1918441A1'
p1
I1
tp2
a(S'WO2011066805A1'
p3
I1
tp4
a.(lp0
(S'EP2361689A1'
p1
I1
tp2
a.(lp0
(S'WO2011104633A3'
p1
I1
tp2
a.(lp0
(S'EP1918441A1'
p1
I1
tp2
a.(lp0
(S'EP1918441A1'
p1
I5
tp2
a(S'EP2361689A1'
p3
I5
tp4
a(S'US20080250823A1'
p5
I5
tp6
a(S'US20120097752A1'
p7
I5
tp8
a(S'WO2000028129A1'
p9
I5
tp10
a(S'WO2011066805A1'
p11
I5
tp12
a(S'WO2011104633A3'
p13
I5
tp14
a.(lp0
(S'EP2361689A1'
p1
I3
tp2
a.(lp0
(S'EP1918441A1'
p1
I2
tp2
a(S'US20080250823A1'
p3
I1
tp4
a.(lp0
(S'WO2011066805A1'
p1
I1
tp2
a.(lp0
(S'US20120097752A1'
p1
I1
tp2
a.(lp0
(S'EP2361689A1'
p1
I1
tp2
a.(lp0
(S'US20120097752A1'
p1
I2
tp2
a.(lp0
(S'WO2011066805A1'
p1
I2
tp2
a.(lp0
(S'US20080250823A1'
p1
I1
tp2
a.(lp0
(S'WO2011104633A3'
p1
I1
tp2
a.(lp0
(S'US20080250823A1'
p1
I1
tp2
a.(lp0
(S'US20120097752A1'
p1
I1
tp2
a.(lp0
(S'EP1918441A1'
p1
I3
tp2
a(S'EP2361689A1'
p3
I9
tp4
a(S'US20080250823A1'
p5
I2
tp6
a(S'US20120097752A1'
p7
I2
tp8
a(S'WO2000028129A1'
p9
I2
tp10
a.(lp0
(S'EP1918441A1'
p1
I11
tp2
a(S'EP2361689A1'
p3
I10
tp4
a(S'US20080250823A1'
p5
I9
tp6
a(S'US20110315796A1'
p7
I22
tp8
a(S'US20120097752A1'
p9
I22
tp10
a(S'WO2000028129A1'
p11
I17
tp12
a(S'WO2011066805A1'
p13
I20
tp14
a(S'WO2011104633A3'
p15
I21
tp16
a.(lp0
(S'EP1918441A1'
p1
I1
tp2
a(S'EP2361689A1'
p3
I1
tp4
a.(lp0
(S'US20110315796A1'
p1
I1
tp2
a.(lp0
(S'WO2011066805A1'
p1
I1
tp2
a.(lp0
(S'WO2011104633A3'
p1
I1
tp2
a.(lp0
(S'US20110315796A1'
p1
I2
tp2
a.(lp0
(S'WO2011066805A1'
p1
I2
tp2
a.(lp0
(S'WO2011066805A1'
p1
I5
tp2
a.(lp0
(S'WO2000028129A1'
p1
I1
tp2
a.(lp0
(S'EP2361689A1'
p1
I1
tp2
a.(lp0
(S'US20080250823A1'
p1
I1
tp2
a.(lp0
(S'EP1918441A1'
p1
I1
tp2
a.(lp0
(S'EP2361689A1'
p1
I2
tp2
a(S'US20080250823A1'
p3
I1
tp4
a.(lp0
(S'WO2011066805A1'
p1
I1
tp2
a.(lp0
(S'WO2000028129A1'
p1
I1
tp2
a.(lp0
(S'EP2361689A1'
p1
I1
tp2
a.(lp0
(S'EP1918441A1'
p1
I2
tp2
a.(lp0
(S'US20110315796A1'
p1
I2
tp2
a.(lp0
(S'EP1918441A1'
p1
I4
tp2
a(S'EP2361689A1'
p3
I4
tp4
a(S'US20080250823A1'
p5
I4
tp6
a(S'US20110315796A1'
p7
I4
tp8
a(S'US20120097752A1'
p9
I5
tp10
a(S'WO2000028129A1'
p11
I4
tp12
a(S'WO2011066805A1'
p13
I4
tp14
a(S'WO2011104633A3'
p15
I4
tp16
a.(lp0
(S'EP1918441A1'
p1
I1
tp2
a.(lp0
(S'EP1918441A1'
p1
I1
tp2
a.(lp0
(S'US20110315796A1'
p1
I1
tp2
a.(lp0
(S'WO2011066805A1'
p1
I1
tp2
a.(lp0
(S'WO2000028129A1'
p1
I1
tp2
a.(lp0
(S'WO2011066805A1'
p1
I1
tp2
a.(lp0
(S'EP1918441A1'
p1
I1
tp2
a.(lp0
(S'US20110315796A1'
p1
I2
tp2
a.(lp0
(S'WO2000028129A1'
p1
I2
tp2
a.(lp0
(S'WO2011066805A1'
p1
I1
tp2
a.(lp0
(S'EP1918441A1'
p1
I2
tp2
a.(lp0
(S'US20110315796A1'
p1
I1
tp2
a.(lp0
(S'EP1918441A1'
p1
I1
tp2
a.(lp0
(S'EP1918441A1'
p1
I1
tp2
a(S'US20080250823A1'
p3
I1
tp4
a(S'WO2000028129A1'
p5
I1
tp6
a(S'WO2011066805A1'
p7
I1
tp8
a.(lp0
(S'EP1918441A1'
p1
I2
tp2
a(S'EP2361689A1'
p3
I2
tp4
a(S'US20080250823A1'
p5
I2
tp6
a(S'US20110315796A1'
p7
I2
tp8
a(S'US20120097752A1'
p9
I2
tp10
a(S'WO2000028129A1'
p11
I2
tp12
a(S'WO2011066805A1'
p13
I2
tp14
a(S'WO2011104633A3'
p15
I2
tp16
a.(lp0
(S'WO2000028129A1'
p1
I2
tp2
a.(lp0
(S'US20120097752A1'
p1
I1
tp2
a.(lp0
(S'WO2011066805A1'
p1
I1
tp2
a.(lp0
(S'EP2361689A1'
p1
I1
tp2
a.(lp0
(S'WO2011104633A3'
p1
I1
tp2
a.(lp0
(S'EP1918441A1'
p1
I1
tp2
a.(lp0
(S'WO2000028129A1'
p1
I1
tp2
a.(lp0
(S'WO2011104633A3'
p1
I6
tp2
a.(lp0
(S'WO2011104633A3'
p1
I6
tp2
a.(lp0
(S'US20120097752A1'
p1
I2
tp2
a.(lp0
(S'US20120097752A1'
p1
I1
tp2
a.(lp0
(S'EP2361689A1'
p1
I1
tp2
a.(lp0
(S'WO2011066805A1'
p1
I2
tp2
a.(lp0
(S'WO2000028129A1'
p1
I1
tp2
a.(lp0
(S'WO2000028129A1'
p1
I1
tp2
a.(lp0
(S'US20110315796A1'
p1
I5
tp2
a(S'US20120097752A1'
p3
I2
tp4
a(S'WO2011066805A1'
p5
I4
tp6
a(S'WO2011104633A3'
p7
I4
tp8
a.(lp0
(S'US20110315796A1'
p1
I3
tp2
a.(lp0
(S'WO2011066805A1'
p1
I2
tp2
a.(lp0
(S'EP2361689A1'
p1
I9
tp2
a.(lp0
(S'EP1918441A1'
p1
I1
tp2
a(S'EP2361689A1'
p3
I1
tp4
a(S'US20080250823A1'
p5
I1
tp6
a(S'US20110315796A1'
p7
I1
tp8
a(S'US20120097752A1'
p9
I1
tp10
a(S'WO2000028129A1'
p11
I1
tp12
a(S'WO2011066805A1'
p13
I1
tp14
a(S'WO2011104633A3'
p15
I1
tp16
a.(lp0
(S'EP2361689A1'
p1
I2
tp2
a(S'US20110315796A1'
p3
I1
tp4
a(S'WO2011104633A3'
p5
I1
tp6
a.(lp0
(S'US20110315796A1'
p1
I1
tp2
a.(lp0
(S'EP1918441A1'
p1
I2
tp2
a(S'EP2361689A1'
p3
I2
tp4
a(S'US20080250823A1'
p5
I2
tp6
a(S'US20110315796A1'
p7
I2
tp8
a(S'US20120097752A1'
p9
I2
tp10
a(S'WO2000028129A1'
p11
I2
tp12
a(S'WO2011066805A1'
p13
I2
tp14
a(S'WO2011104633A3'
p15
I2
tp16
a.(lp0
(S'EP1918441A1'
p1
I1
tp2
a(S'EP2361689A1'
p3
I1
tp4
a(S'US20080250823A1'
p5
I1
tp6
a(S'US20110315796A1'
p7
I1
tp8
a(S'US20120097752A1'
p9
I1
tp10
a(S'WO2000028129A1'
p11
I1
tp12
a(S'WO2011066805A1'
p13
I1
tp14
a(S'WO2011104633A3'
p15
I1
tp16
a.(lp0
(S'EP1918441A1'
p1
I3
tp2
a(S'US20080250823A1'
p3
I4
tp4
a(S'WO2000028129A1'
p5
I1
tp6
a(S'WO2011066805A1'
p7
I3
tp8
a.(lp0
(S'EP1918441A1'
p1
I1
tp2
a(S'EP2361689A1'
p3
I1
tp4
a(S'US20120097752A1'
p5
I2
tp6
a(S'WO2011066805A1'
p7
I1
tp8
a.(lp0
(S'EP2361689A1'
p1
I5
tp2
a(S'US20110315796A1'
p3
I3
tp4
a.(lp0
(S'US20120097752A1'
p1
I1
tp2
a.(lp0
(S'WO2000028129A1'
p1
I1
tp2
a.(lp0
(S'EP1918441A1'
p1
I2
tp2
a(S'US20080250823A1'
p3
I1
tp4
a.(lp0
(S'WO2011066805A1'
p1
I2
tp2
a.(lp0
(S'WO2000028129A1'
p1
I1
tp2
a.(lp0
(S'WO2011066805A1'
p1
I2
tp2
a.(lp0
(S'WO2011066805A1'
p1
I3
tp2
a.(lp0
(S'EP1918441A1'
p1
I5
tp2
a(S'EP2361689A1'
p3
I6
tp4
a(S'US20080250823A1'
p5
I4
tp6
a(S'US20110315796A1'
p7
I4
tp8
a(S'US20120097752A1'
p9
I5
tp10
a(S'WO2000028129A1'
p11
I4
tp12
a(S'WO2011066805A1'
p13
I7
tp14
a(S'WO2011104633A3'
p15
I5
tp16
a.(lp0
(S'WO2011066805A1'
p1
I2
tp2
a.(lp0
(S'EP1918441A1'
p1
I1
tp2
a(S'US20080250823A1'
p3
I2
tp4
a.(lp0
(S'EP2361689A1'
p1
I1
tp2
a(S'US20120097752A1'
p3
I3
tp4
a.(lp0
(S'US20080250823A1'
p1
I2
tp2
a.(lp0
(S'EP1918441A1'
p1
I11
tp2
a(S'EP2361689A1'
p3
I9
tp4
a(S'US20080250823A1'
p5
I5
tp6
a(S'US20110315796A1'
p7
I13
tp8
a(S'US20120097752A1'
p9
I7
tp10
a(S'WO2000028129A1'
p11
I19
tp12
a(S'WO2011066805A1'
p13
I4
tp14
a(S'WO2011104633A3'
p15
I12
tp16
a.(lp0
(S'US20080250823A1'
p1
I1
tp2
a.(lp0
(S'EP2361689A1'
p1
I1
tp2
a.(lp0
(S'WO2011066805A1'
p1
I1
tp2
a.(lp0
(S'US20080250823A1'
p1
I1
tp2
a.(lp0
(S'US20110315796A1'
p1
I1
tp2
a.(lp0
(S'WO2000028129A1'
p1
I3
tp2
a.(lp0
(S'WO2000028129A1'
p1
I1
tp2
a.(lp0
(S'WO2011066805A1'
p1
I1
tp2
a.(lp0
(S'EP1918441A1'
p1
I4
tp2
a.(lp0
(S'US20110315796A1'
p1
I4
tp2
a(S'US20120097752A1'
p3
I1
tp4
a(S'WO2011066805A1'
p5
I1
tp6
a(S'WO2011104633A3'
p7
I3
tp8
a.(lp0
(S'EP1918441A1'
p1
I2
tp2
a(S'EP2361689A1'
p3
I2
tp4
a(S'US20080250823A1'
p5
I2
tp6
a(S'US20110315796A1'
p7
I2
tp8
a(S'US20120097752A1'
p9
I2
tp10
a(S'WO2000028129A1'
p11
I2
tp12
a(S'WO2011066805A1'
p13
I2
tp14
a(S'WO2011104633A3'
p15
I2
tp16
a.(lp0
(S'US20110315796A1'
p1
I1
tp2
a(S'US20120097752A1'
p3
I1
tp4
a(S'WO2011066805A1'
p5
I1
tp6
a.(lp0
(S'US20080250823A1'
p1
I1
tp2
a.(lp0
(S'WO2000028129A1'
p1
I1
tp2
a.(lp0
(S'EP1918441A1'
p1
I1
tp2
a.(lp0
(S'US20110315796A1'
p1
I2
tp2
a.(lp0
(S'WO2011066805A1'
p1
I1
tp2
a.(lp0
(S'EP1918441A1'
p1
I2
tp2
a.(lp0
(S'EP1918441A1'
p1
I1
tp2
a.(lp0
(S'WO2011066805A1'
p1
I2
tp2
a.(lp0
(S'WO2011066805A1'
p1
I1
tp2
a.(lp0
(S'EP1918441A1'
p1
I1
tp2
a(S'EP2361689A1'
p3
I1
tp4
a(S'US20080250823A1'
p5
I1
tp6
a(S'US20110315796A1'
p7
I1
tp8
a(S'US20120097752A1'
p9
I1
tp10
a(S'WO2000028129A1'
p11
I1
tp12
a(S'WO2011066805A1'
p13
I1
tp14
a(S'WO2011104633A3'
p15
I1
tp16
a.(lp0
(S'US20120097752A1'
p1
I1
tp2
a.(lp0
(S'WO2011104633A3'
p1
I1
tp2
a.(lp0
(S'US20120097752A1'
p1
I4
tp2
a.(lp0
(S'EP1918441A1'
p1
I1
tp2
a(S'EP2361689A1'
p3
I1
tp4
a(S'US20080250823A1'
p5
I2
tp6
a(S'WO2011104633A3'
p7
I2
tp8
a.(lp0
(S'EP2361689A1'
p1
I1
tp2
a.(lp0
(S'US20120097752A1'
p1
I5
tp2
a.(lp0
(S'US20080250823A1'
p1
I1
tp2
a(S'US20110315796A1'
p3
I1
tp4
a(S'WO2000028129A1'
p5
I4
tp6
a(S'WO2011066805A1'
p7
I1
tp8
a.(lp0
(S'WO2011104633A3'
p1
I6
tp2
a.(lp0
(S'WO2000028129A1'
p1
I2
tp2
a.(lp0
(S'US20120097752A1'
p1
I2
tp2
a.(lp0
(S'WO2000028129A1'
p1
I1
tp2
a(S'WO2011066805A1'
p3
I5
tp4
a.(lp0
(S'WO2000028129A1'
p1
I1
tp2
a.(lp0
(S'EP1918441A1'
p1
I1
tp2
a(S'EP2361689A1'
p3
I2
tp4
a(S'US20080250823A1'
p5
I3
tp6
a(S'US20110315796A1'
p7
I2
tp8
a(S'US20120097752A1'
p9
I4
tp10
a(S'WO2000028129A1'
p11
I2
tp12
a(S'WO2011066805A1'
p13
I3
tp14
a.(lp0
(S'EP2361689A1'
p1
I1
tp2
a.(lp0
(S'EP1918441A1'
p1
I1
tp2
a.(lp0
(S'EP1918441A1'
p1
I5
tp2
a(S'EP2361689A1'
p3
I4
tp4
a(S'US20080250823A1'
p5
I4
tp6
a(S'US20110315796A1'
p7
I4
tp8
a(S'US20120097752A1'
p9
I4
tp10
a(S'WO2000028129A1'
p11
I5
tp12
a(S'WO2011066805A1'
p13
I4
tp14
a(S'WO2011104633A3'
p15
I4
tp16
a.(lp0
(S'WO2011066805A1'
p1
I3
tp2
a.(lp0
(S'US20120097752A1'
p1
I1
tp2
a.(lp0
(S'EP1918441A1'
p1
I1
tp2
a.(lp0
(S'US20110315796A1'
p1
I1
tp2
a.(lp0
(S'US20080250823A1'
p1
I1
tp2
a(S'US20110315796A1'
p3
I1
tp4
a(S'US20120097752A1'
p5
I1
tp6
a.(lp0
(S'WO2011066805A1'
p1
I2
tp2
a.(lp0
(S'US20120097752A1'
p1
I1
tp2
a.(lp0
(S'WO2011066805A1'
p1
I1
tp2
a.(lp0
(S'WO2000028129A1'
p1
I1
tp2
a.(lp0
(S'WO2000028129A1'
p1
I1
tp2
a.(lp0
(S'WO2011104633A3'
p1
I1
tp2
a.(lp0
(S'WO2011066805A1'
p1
I1
tp2
a.(lp0
(S'US20080250823A1'
p1
I1
tp2
a.(lp0
(S'WO2011066805A1'
p1
I2
tp2
a.(lp0
(S'EP1918441A1'
p1
I1
tp2
a(S'EP2361689A1'
p3
I1
tp4
a(S'US20080250823A1'
p5
I1
tp6
a(S'US20110315796A1'
p7
I1
tp8
a(S'US20120097752A1'
p9
I1
tp10
a(S'WO2000028129A1'
p11
I1
tp12
a(S'WO2011066805A1'
p13
I1
tp14
a(S'WO2011104633A3'
p15
I1
tp16
a.(lp0
(S'EP2361689A1'
p1
I2
tp2
a(S'US20080250823A1'
p3
I2
tp4
a(S'US20110315796A1'
p5
I4
tp6
a(S'US20120097752A1'
p7
I1
tp8
a(S'WO2000028129A1'
p9
I3
tp10
a.(lp0
(S'EP1918441A1'
p1
I86
tp2
a(S'EP2361689A1'
p3
I78
tp4
a(S'US20080250823A1'
p5
I84
tp6
a(S'US20110315796A1'
p7
I66
tp8
a(S'US20120097752A1'
p9
I82
tp10
a(S'WO2000028129A1'
p11
I82
tp12
a(S'WO2011066805A1'
p13
I66
tp14
a(S'WO2011104633A3'
p15
I66
tp16
a.(lp0
(S'EP2361689A1'
p1
I2
tp2
a(S'WO2011104633A3'
p3
I4
tp4
a.(lp0
(S'US20110315796A1'
p1
I1
tp2
a.(lp0
(S'EP2361689A1'
p1
I1
tp2
a(S'WO2011066805A1'
p3
I1
tp4
a.(lp0
(S'EP2361689A1'
p1
I1
tp2
a.(lp0
(S'US20120097752A1'
p1
I1
tp2
a.(lp0
(S'US20110315796A1'
p1
I2
tp2
a.(lp0
(S'EP1918441A1'
p1
I1
tp2
a.(lp0
(S'EP1918441A1'
p1
I1
tp2
a(S'EP2361689A1'
p3
I1
tp4
a(S'US20080250823A1'
p5
I1
tp6
a(S'US20110315796A1'
p7
I1
tp8
a(S'US20120097752A1'
p9
I1
tp10
a(S'WO2000028129A1'
p11
I1
tp12
a(S'WO2011066805A1'
p13
I1
tp14
a(S'WO2011104633A3'
p15
I1
tp16
a.(lp0
(S'EP1918441A1'
p1
I1
tp2
a(S'US20080250823A1'
p3
I2
tp4
a.(lp0
(S'WO2000028129A1'
p1
I13
tp2
a(S'WO2011104633A3'
p3
I1
tp4
a.(lp0
(S'US20080250823A1'
p1
I1
tp2
a.(lp0
(S'EP1918441A1'
p1
I1
tp2
a(S'EP2361689A1'
p3
I1
tp4
a(S'US20080250823A1'
p5
I1
tp6
a(S'US20110315796A1'
p7
I1
tp8
a(S'US20120097752A1'
p9
I1
tp10
a(S'WO2000028129A1'
p11
I1
tp12
a(S'WO2011066805A1'
p13
I2
tp14
a(S'WO2011104633A3'
p15
I1
tp16
a.(lp0
(S'EP1918441A1'
p1
I2
tp2
a(S'EP2361689A1'
p3
I1
tp4
a(S'US20080250823A1'
p5
I1
tp6
a(S'US20110315796A1'
p7
I1
tp8
a(S'US20120097752A1'
p9
I1
tp10
a(S'WO2000028129A1'
p11
I1
tp12
a(S'WO2011066805A1'
p13
I1
tp14
a(S'WO2011104633A3'
p15
I3
tp16
a.(lp0
(S'US20080250823A1'
p1
I1
tp2
a.(lp0
(S'WO2011104633A3'
p1
I6
tp2
a.(lp0
(S'WO2011066805A1'
p1
I3
tp2
a.(lp0
(S'US20110315796A1'
p1
I1
tp2
a.(lp0
(S'EP1918441A1'
p1
I1
tp2
a(S'EP2361689A1'
p3
I1
tp4
a(S'US20080250823A1'
p5
I1
tp6
a(S'US20110315796A1'
p7
I1
tp8
a(S'US20120097752A1'
p9
I1
tp10
a(S'WO2000028129A1'
p11
I1
tp12
a(S'WO2011066805A1'
p13
I1
tp14
a.(lp0
(S'WO2011104633A3'
p1
I1
tp2
a.(lp0
(S'WO2011066805A1'
p1
I5
tp2
a.(lp0
(S'WO2011066805A1'
p1
I1
tp2
a.(lp0
(S'EP2361689A1'
p1
I1
tp2
a.(lp0
(S'US20120097752A1'
p1
I1
tp2
a.(lp0
(S'EP2361689A1'
p1
I1
tp2
a.(lp0
(S'EP2361689A1'
p1
I1
tp2
a.(lp0
(S'EP1918441A1'
p1
I3
tp2
a(S'US20080250823A1'
p3
I2
tp4
a.(lp0
(S'EP2361689A1'
p1
I9
tp2
a.(lp0
(S'EP1918441A1'
p1
I1
tp2
a.(lp0
(S'WO2011104633A3'
p1
I1
tp2
a.(lp0
(S'WO2011066805A1'
p1
I2
tp2
a.(lp0
(S'WO2000028129A1'
p1
I1
tp2
a.(lp0
(S'US20110315796A1'
p1
I1
tp2
a.(lp0
(S'EP1918441A1'
p1
I1
tp2
a.(lp0
(S'WO2011066805A1'
p1
I1
tp2
a.(lp0
(S'EP1918441A1'
p1
I1
tp2
a(S'US20080250823A1'
p3
I2
tp4
a.(lp0
(S'WO2011066805A1'
p1
I1
tp2
a.(lp0
(S'EP2361689A1'
p1
I2
tp2
a.